(dp0
V\u76c8\u6e2f\u4e1c\u8def
p1
g1
sV\u85ff\u9999\u8def
p2
g2
sV\u91d1\u5149\u8def
p3
g3
sS'Dapu Road'
p4
V\u6253\u6d66\u8def\u53f7
p5
sV\u6c38\u6021\u8defn(\u95e8\u4e1c)\u957f\u6cf0\u8def\u897f115&\u6cb3\u4e1c\u4e8c\u8def\u4e1c295
p6
V\u6c38\u6021\u8def
p7
sV\u5de5\u519c\u5357\u8defe(\u95e8\u5317)\u9759\u6d77\u5546\u8d38\u8857\u531750&\u82b1\u56ed\u8def\u5357380
p8
V\u5de5\u519c\u5357\u8def
p9
sV\u5434\u4e2d\u5927\u9053
p10
g10
sV\u6843\u6e90\u8def
p11
g11
sV\u9f99\u5434\u8def
p12
g12
sV\u91d1\u94a9\u6865\u8857
p13
g13
sV\u5916\u73af\u897f\u8defe(\u95e8\u5317)\u9752\u5e74\u897f\u8def\u5317215&\u4efb\u6e2f\u8def\u5357500
p14
V\u5916\u73af\u897f\u8def
p15
sV\u4e2d\u5c71\u897f\u8def 1245 \u5f04
p16
V\u4e2d\u5c71\u897f\u8def
p17
sV\u6cc9\u53e3\u8def
p18
g18
sS'Zhengli Road'
p19
V\u6b63\u529b\u8def
p20
sV\u6052\u4e30\u8def
p21
g21
sV\u573a\u4e2d\u8def
p22
g22
sV\u6668\u6656\u8def
p23
g23
sS'Hong Song East Raod'
p24
V\u9999\u6e2f\u6b4c\u4e1c\u8def
p25
sV\u949f\u79c0\u4e2d\u8defs(\u95e8\u897f)\u90ed\u91cc\u56ed\u8def\u897f25&\u6fe0\u4e1c\u8def\u4e1c320
p26
V\u949f\u79c0\u4e2d\u8def
p27
sV\u9f99\u534e\u897f\u8def
p28
g28
sV\u6d66\u4e1c\u5357\u8def
p29
g29
sV\u6c38\u6021\u8defn(\u95e8\u4e1c)\u957f\u65b0\u8def\u897f165&\u957f\u6cf0\u8def\u4e1c200
p30
V\u6c38\u6021\u8def
p31
sV\u5de5\u519c\u5357\u8defw(\u95e8\u5357)\u7ea2\u661f\u8def\u531750&\u6c5f\u7eac\u8def\u5357230
p32
V\u5de5\u519c\u5357\u8def
p33
sV\u6843\u6797\u8def
p34
g34
sV\u5de5\u519c\u8defw(\u95e8\u5357)\u4eba\u6c11\u4e2d\u8def\u5317370&\u6fe0\u5317\u8def\u5357110
p35
V\u5de5\u519c\u8def
p36
sV\u7ea2\u67ab\u8def
p37
g37
sS'Xiaoxinqiao Xiang'
p38
V\u5c0f\u65b0\u6865\u4e61
p39
sV\u6ee8\u6e56\u533a\u9752\u7941\u8def\u548c\u6881\u6eaa\u8def\u4ea4\u53c9\u897f\u5357\u89d2
p40
g40
sS'Xingzhou Rd'
p41
V\u65b0\u6d32\u8def
p42
sV\u5de5\u519c\u5357\u8defw(\u4e1c\u4fa7)\u6c5f\u7eac\u8def\u5317215&\u8679\u6865\u8def\u5357205
p43
V\u5de5\u519c\u5357\u8def
p44
sV\u5929\u76ee\u8def
p45
g45
sS'Ruijin Er Road'
p46
V\u745e\u91d1\u4e8c\u8def
p47
sV\u6caa\u5357\u8def2729\u5f04
p48
V\u6caa\u5357\u8def
p49
sV\u957f\u5b81\u8def
p50
g50
sV\u4eba\u6c11\u5927\u9053
p51
g51
sV\u4e16\u7eaa\u5927\u9053 Century Avenue
p52
V\u4e16\u7eaa\u5927\u9053
p53
sV\u535a\u971e\u8def
p54
g54
sV\u8bf8\u5149\u8def1355\u5f04
p55
V\u8bf8\u5149\u8def
p56
sS'Ling long lu'
p57
V\u73b2\u73d1\u8def
p58
sV\u4e2d\u5fc3\u8def
p59
g59
sV\u83b2\u82b1\u8857
p60
g60
sV\u676d\u5b81\u9ad8\u901f\u516c\u8def
p61
g61
sV\u6bb5\u5bb6\u575d\u8defe(\u95e8\u5357)\u57ce\u5c71\u8def\u5317395&\u8679\u6865\u8def\u5357185
p62
V\u6bb5\u5bb6\u575d\u8def
p63
sS'NO.588 binhe road'
p64
V\u6ee8\u6cb3\u8def 588
p65
sV\u66d9\u5149\u8def Shuguang Road
p66
V\u66d9\u5149\u8def
p67
sV\u5916\u73af\u897f\u8defw(\u95e8\u5357)\u949f\u79c0\u897f\u8def\u53171020&\u6c5f\u6d77\u5927\u9053\u5357280
p68
V\u5916\u73af\u897f\u8def
p69
sV\u66d9\u5149\u8def
p70
g70
sV\u4e2d\u6f6d\u8def
p71
g71
sV\u4e4d\u6d66\u8def
p72
g72
sV\u66f9\u6dde\u8def
p73
g73
sV\u4e5d\u6c5f\u8def
p74
g74
sV\u4e1c\u8d75\u5bb6\u5df7e\u4eba\u6c11\u4e2d\u8def\u531790&\u5317\u56ed\u8def\u5357230
p75
V\u4e1c\u8d75\u5bb6\u5df7
p76
sV\u4e2d\u8fdc\u8defs(\u95e8\u4e1c)\u5916\u73af\u897f\u8def\u897f95&\u957f\u6c5f\u4e2d\u8def\u9ad8\u67b6\u4e1c465
p77
V\u4e2d\u8fdc\u8def
p78
sV\u6d2a\u6c5f\u8defn(\u95e8\u4e1c)\u6d77\u7aef\u8def\u897f210&\u57ce\u5c71\u8def\u4e1c335
p79
V\u6d2a\u6c5f\u8def
p80
sV\u6fb3\u95e8\u8def
p81
g81
sV\u6e05\u6e90\u73af\u8def
p82
g82
sV\u6c5f\u67ab\u8def
p83
g83
sV\u5de5\u519c\u8defe(\u95e8\u5357)\u4eba\u6c11\u4e2d\u8def\u5317165&\u6fe0\u5317\u8def\u5357310
p84
V\u5de5\u519c\u8def
p85
sV\u8679\u6865\u8defn(\u5165\u53e3\u4e1c)\u5b9d\u7075\u8def\u897f135&\u59da\u6e2f\u8def\u4e1c295
p86
V\u8679\u6865\u8def
p87
sV\u6caa\u5357\u8def2727\u5f04
p88
V\u6caa\u5357\u8def
p89
sV\u6c5f\u901a\u8defw(\u95e8\u5317)\u6c38\u8fbe\u8def\u5317305&\u6c38\u5174\u5927\u9053\u535780
p90
V\u6c5f\u901a\u8def
p91
sV\u6d2a\u6c5f\u8defs(\u95e8\u4e1c)\u6d2a\u6c5f\u4e1c\u8def\u897f160&\u6da6\u65b0\u8def\u4e1c390
p92
V\u6d2a\u6c5f\u8def
p93
sV\u9752\u5e74\u4e2d\u8defs(\u5317\u4fa7)\u5357\u5927\u8857\u897f30&\u8dc3\u9f99(\u5357)\u8def\u4e1c620
p94
V\u9752\u5e74\u4e2d\u8def
p95
sV\u5efa\u56fd\u4e2d\u8def
p96
g96
sS'Bibo Rd.'
p97
V\u78a7\u6ce2\u8def
p98
sS'3'
p99
V3
p100
sV\u5929\u94a5\u6865\u8def
p101
g101
sV\u8398\u4e1c\u8def
p102
g102
sV\u677e\u82b1\u6c5f\u8def
p103
g103
sV\u6f15\u6eaa\u5317\u8def
p104
g104
sV\u9752\u5e74\u4e2d\u8defn(\u95e8\u4e1c)\u901a\u4eac\u5927\u9053\u897f305&\u4e94\u4e00\u8def\u4e1c630
p105
V\u9752\u5e74\u4e2d\u8def
p106
sV\u4ed3\u6c47\u8def
p107
g107
sV\u8679\u6865\u8defs(\u95e8\u6b63\u5357)\u671d\u971e\u8def\u897f70&\u60e0\u8679\u8def\u4e1c315
p108
V\u8679\u6865\u8def
p109
sV\u7389\u534e\u8def
p110
g110
sS'Siping'
p111
V\u56db\u5e73
p112
sV\u6587\u5b87\u8def
p113
g113
sV\u56fd\u5f3a\u8defw(\u65b0\u79e6\u7076\u4eba\u5bb6\u56ed\u95e8\u5357)\u6c38\u6021\u8def\u5317495&\u6c38\u660c\u8def\u535775
p114
V\u56fd\u5f3a\u8def
p115
sV\u9ed1\u5c71\u8def
p116
g116
sV\u4e2d\u8fdc\u8defs(\u95e8\u4e1c)\u957f\u6c5f\u4e2d\u8def\u897f100&\u4e2d\u8fdc\u897f\u8def\u4e1c310
p117
V\u4e2d\u8fdc\u8def
p118
sV\u8336\u9675\u5317\u8def
p119
g119
sV\u8398\u5317\u8def
p120
g120
sV\u4eac\u534e\u8def
p121
g121
sV\u534e\u661f\u8def
p122
g122
sV\u4e2d\u65b0\u4e8c\u8defn(\u95e8\u897f)\u901a\u4eac\u5927\u9053\u897f220&\u6821\u897f\u8def\u4e1c380
p123
V\u4e2d\u65b0\u4e8c\u8def
p124
sV\u5357\u56ed\u8defn(\u897f\u5165\u53e3\u4e1c)\u6587\u5cf0\u8def-\u5e73\u5b89\u8def\u897f190&\u94f6\u901a\u8def\u4e1c65
p125
V\u5357\u56ed\u8def
p126
sV\u5927\u751f\u8defe(\u95e8\u5317)\u82a6\u6cfe\u8def\u5317250&\u539a\u751f\u8def\u5357225
p127
V\u5927\u751f\u8def
p128
sV\u5317\u6e14\u8def
p129
g129
sV\u4e2d\u5c71\u897f\u8def
p130
g130
sV\u91d1\u95e8\u8def
p131
g131
sV\u5174\u4e1a\u8def
p132
g132
sV\u4e07\u822a\u6e21\u8def
p133
g133
sV\u76d8\u9999\u8defw(\u95e8\u5317)\u5d07\u5ddd\u8def\u5317490&\u4e16\u7eaa\u5927\u9053\u535745
p134
V\u76d8\u9999\u8def
p135
sV\u5b81\u8679\u8def
p136
g136
sV\u5927\u6210\u8def
p137
g137
sS'Middle Yincheng Road'
p138
V\u94f6\u57ce\u4e2d\u8def
p139
sV\u6c38\u548c\u8defs(\u897f\u5165\u53e3\u524d)\u7ad9\u524d\u4e1c\u8857\u897f115&\u5317\u5927\u8857\u4e1c130
p140
V\u6c38\u548c\u8def
p141
sV\u53cc\u5854\u8def
p142
g142
sV\u89c4\u5212\u4e00\u8def
p143
g143
sS'East Zhenchuan Rd.'
p144
V\u4e1c\u632f\u5ddd\u8def
p145
sV\u957f\u5e73\u8defn(\u95e8\u897f)\u6c38\u6768\u8def\u897f15&\u6c38\u548c\u8def\u4e1c200
p146
V\u957f\u5e73\u8def
p147
sV\u5f70\u6b66\u8def
p148
g148
sV\u66a8\u9633\u4e2d\u8def
p149
g149
sV\u5b66\u7530\u8defn(\u95e8\u897f)\u5b66\u7530\u516c\u56ed\u4e1c\u8def\u897f535&\u5de5\u519c\u8def\u4e1c30
p150
V\u5b66\u7530\u8def
p151
sV\u8679\u6f15\u8def
p152
g152
sV\u7261\u4e39\u6c5f\u8def
p153
g153
sV\u57ce\u5357\u7eb5\u8defe(\u897f\u4fa7)\u8679\u6865\u8def\u5317230&\u9752\u5e74\u4e2d\u8def\u5357480
p154
V\u57ce\u5357\u7eb5\u8def
p155
sV\u4e5d\u675c\u8def JiuDu Road
p156
V\u4e5d\u675c\u8def
p157
sV\u756a\u79ba\u8def
p158
g158
sV\u6dee\u6d77\u4e2d\u8def
p159
g159
sS'Wukang Rd'
p160
V\u6b66\u5eb7\u8def
p161
sV\u9a6c\u5f53\u8def
p162
g162
sV\u7eff\u6e56\u8def
p163
g163
sV\u6768\u67f3\u9752\u8def
p164
g164
sV\u94dc\u4ec1\u8def
p165
g165
sV\u5c0f\u6cb3\u8def
p166
g166
sV\u6c38\u5174\u5927\u9053s(\u95e8\u4e1c)\u6c5f\u901a\u8def\u897f125&\u5de5\u519c\u5317\u8def\u4e1c470
p167
V\u6c38\u5174\u5927\u9053
p168
sV\u5de8\u9e7f\u8def
p169
g169
sV\u660c\u5316\u8def
p170
g170
sV\u9f99\u6e90\u8def
p171
g171
sV\u9f99\u817e\u5927\u9053
p172
g172
sV\u8dc3\u9f99\u8defe(\u5165\u53e3\u5357)\u9752\u5e74\u4e2d\u8def\u531780&\u5357\u6731\u5bb6\u56ed\u8def\u535775
p173
V\u8dc3\u9f99\u8def
p174
sV\u519b\u5de5\u8def 516 \u5f04
p175
V\u519b\u5de5\u8def
p176
sS'Suzhou Industrial Park'
p177
V\u82cf\u5dde\u5de5\u4e1a\u56ed\u533a
p178
sV\u8dc3\u9f99\u5357\u8defe(\u95e8\u5357)\u8679\u6865\u8def\u5317575&\u9752\u5e74\u4e2d\u8def\u5357295
p179
V\u8dc3\u9f99\u5357\u8def
p180
sV\u56ed\u6797\u8defe(\u95e8\u5317)\u7948\u901a\u897f\u8def\u531715&\u5d07\u5ddd\u8def\u5357390
p181
V\u56ed\u6797\u8def
p182
sV\u4e1c\u7ee3\u8def
p183
g183
sV\u91d1\u6c47\u5357\u8def
p184
g184
sS'Zhangshe Road'
p185
V\u5f20\u820d\u8def
p186
sV\u91d1\u8f89\u8def
p187
g187
sS'Yueyang Road'
p188
V\u5cb3\u9633\u8def
p189
sV\u5357\u4e39\u4e1c\u8def
p190
g190
sV\u6fe0\u5317\u8defs(\u95e8\u897f)\u5de5\u519c\u8def\u897f265\u90ed\u91cc\u56ed\u8def\u4e1c255
p191
V\u6fe0\u5317\u8def
p192
sV\u5e73\u9675\u4e2d\u8def
p193
g193
sS'Garden Road'
p194
V\u82b1\u56ed\u9053
p195
sV\u57ce\u5c71\u8def(\u95e8\u5317)e\u8679\u6865\u8def\u5317225&\u9752\u5e74\u4e2d\u8def\u5357220(5\u53f7\u697c\u897f)
p196
V\u57ce\u5c71\u8def
p197
sV\u5de5\u519c\u8defe(\u5317\u5165\u53e3\u5357)\u6fe0\u5317\u8def\u531735&\u949f\u79c0\u4e2d\u8def\u5357680
p198
V\u5de5\u519c\u8def
p199
sV\u590d\u5174\u4e2d\u8def
p200
g200
sV\u65b0\u6e2f\u4e2d\u8defw\u56ed\u6797\u8def\u5317765&\u82b1\u56ed\u8def\u535735
p201
V\u65b0\u6e2f\u4e2d\u8def
p202
sV\u6cf0\u5eb7\u8def
p203
g203
sV\u5357\u6797\u8def
p204
g204
sV\u71d5\u5c71\u5357\u8def
p205
g205
sV\u73af\u57ce\u897f\u8defw(\u95e8\u5317)\u4eba\u6c11\u4e2d\u8def\u5317390&\u73af\u57ce\u5317\u8def\u5357170
p206
V\u73af\u57ce\u897f\u8def
p207
sV\u4ed9\u6f6d\u8def
p208
g208
sV\u7af9\u7ba6\u9547
p209
g209
sV\u4eba\u6c11\u8def\u96a7\u9053
p210
g210
sV\u5251\u5ddd\u8def
p211
g211
sV\u65b0\u9547\u8def
p212
g212
sV\u9f99\u534e\u8def
p213
g213
sV\u745e\u91d1\u4e8c\u8def
p214
g214
sV\u53cb\u8c0a\u8def
p215
g215
sS'Yuyuan Road'
p216
V\u611a\u56ed\u8def
p217
sV\u96c6\u7f8e\u8defn(\u95e8\u4e1c)\u9648\u6865\u8def\u897f145&\u60e0\u6c11\u8def\u4e1c360
p218
V\u96c6\u7f8e\u8def
p219
sV\u5e84\u5e02\u5927\u9053
p220
g220
sV\u5357\u6cc9\u5317\u8def
p221
g221
sV\u65b0\u6e2f\u4e2d\u8defw\u56ed\u6797\u8def\u5317360&\u82b1\u56ed\u8def\u5357435
p222
V\u65b0\u6e2f\u4e2d\u8def
p223
sS'Taihu Road'
p224
V\u592a\u6e56\u8def
p225
sS'Huashang Rd'
p226
V\u534e\u5546\u8def
p227
sV\u7d2b\u7405\u8def30\u53f7e(\u95e8\u5317)\u6843\u56ed\u8def\u5317160&\u5d07\u6d77\u8def-\u745e\u8fdc\u8def\u5357140
p228
V\u7d2b\u7405\u8def
p229
sV\u73af\u6e56\u897f\u4e09\u8def\u000a
p230
V\u73af\u6e56\u897f\u4e09\u8def
p231
sS'Xiangyang'
p232
V\u8944\u9633\u5e02
p233
sV\u8054\u53cb\u8def
p234
g234
sV\u6587\u82d1\u8def
p235
g235
sV\u897f\u5e02\u8857s(\u95e8\u4e1c)\u9ad8\u5cb8\u8857\u897f60&\u5927\u751f\u8def\u4e1c205
p236
V\u897f\u5e02\u8857
p237
sV\u6e05\u5cea\u8def
p238
g238
sV\u9ec4\u5174\u8def
p239
g239
sV\u901a\u6c5f\u5317\u8def
p240
g240
sV\u8861\u5c71\u8def
p241
g241
sV\u4ed3\u534e\u8def
p242
g242
sS'Xian Xia Rd'
p243
V\u4ed9\u971e\u8def
p244
sV\u5e74\u5bb6\u6d5c\u8def
p245
g245
sV\u8398\u677e\u8def
p246
g246
sV\u9f99\u541f\u8def
p247
g247
sV\u5149\u534e\u8def
p248
g248
sV\u5b69\u513f\u5df7\u5317\u8defw(\u95e8\u5317)\u4eba\u6c11\u4e2d-\u897f\u8def\u5317230&\u98df\u54c1\u8def\u5357280
p249
V\u5b69\u513f\u5df7\u5317\u8def
p250
sV\u6d77\u7aef\u8defw(\u95e8\u5317)\u6cbf\u6cb3\u8def\u897f135&\u6d2a\u6c5f\u8def\u5357265
p251
V\u6d77\u7aef\u8def
p252
sV\u6fe0\u5357\u8defn(\u95e8\u5357)\u5de5\u519c\u8def\u897f20&\u6587\u5cf0-\u5e73\u5b89\u8def\u4e1c165
p253
V\u6fe0\u5357\u8def
p254
sV\u897f\u85cf\u4e2d\u8def
p255
g255
sV\u4e4c\u9c81\u6728\u9f50\u4e2d\u8def
p256
g256
sV\u6021\u82b3\u8def
p257
g257
sV\u771f\u5149\u8def
p258
g258
sS'Huaihai West road Wellington garden'
p259
V\u6dee\u6d77\u897f\u8def\u9053\u60e0\u7075\u987f\u82b1\u56ed
p260
sV\u5c45\u91cc\u8def
p261
g261
sV\u901a\u6ce2\u8def
p262
g262
sV\u6d77\u9632\u8def
p263
g263
sV\u5c11\u5e74\u6751\u8def
p264
g264
sV\u80f6\u5dde\u8def
p265
g265
sV\u65b0\u540c\u5fc3\u8def
p266
g266
sV\u5357\u5c71\u8def
p267
g267
sV\u94f6\u6cfd\u8def
p268
g268
sV\u5bcc\u6c11\u8def
p269
g269
sV\u6fe0\u5357\u8def(\u95e8\u897f)n\u73af\u57ce\u4e1c\u8def\u897f190&\u542f\u79c0\u8def\u4e1c5
p270
V\u6fe0\u5357\u8def
p271
sV\u80b2\u8d24\u8def
p272
g272
sV\u7533\u6ee8\u8def
p273
g273
sV\u5415\u84bf\u7ebf
p274
g274
sV\u71d5\u5c71\u4e2d\u8def
p275
g275
sS'Jiashan Market'
p276
V\u5609\u5584\u5e02\u573a
p277
sV\u6c38\u9633\u8857\u9053
p278
g278
sV\u8679\u6865\u8def
p279
g279
sV\u5357\u90ca\u8defs(\u95e8\u524d)\u56ed\u6797\u8def\u897f130&\u6c38\u7ea2\u8def\u5357265
p280
V\u5357\u90ca\u8def
p281
sV\u6587\u4e00\u897f\u8def Wenyi Road (West)
p282
V\u6587\u4e00\u897f\u8def
p283
sV\u5b50\u9752\u8def
p284
g284
sV\u4e07\u5858\u8def
p285
g285
sV\u8d77\u51e4\u8857s\u4eba\u6c11\u4e2d\u8def\u897f160&\u82b1\u6728\u8def\u4e1c65(30\u5e62\u5317)
p286
V\u8d77\u51e4\u8857
p287
sV\u4e16\u4f26\u8defw(\u5165\u53e3\u5317)\u5d07\u5ddd\u8def\u5317440&\u4e16\u7eaa\u5927\u9053\u535785
p288
V\u4e16\u4f26\u8def
p289
sV\u5b89\u798f\u8def
p290
g290
sS'Nanjing Road'
p291
V\u5357\u4eac\u8def
p292
sV\u4eba\u6c11\u4e2d\u8defs\u8d77\u51e4\u8857(\u897f)\u897f120&\u5b69\u513f\u5df7\u5357-\u5317\u8def\u4e1c95
p293
V\u4eba\u6c11\u4e2d\u8def
p294
sV\u5927\u6cbd\u5858\u8def
p295
g295
sV\u822a\u5934\u9547
p296
g296
sV\u5b66\u9662\u8def
p297
g297
sV\u8679\u6865\u8defn(\u95e8\u897f)\u5916\u73af\u897f\u8def\u897f100&\u957f\u6c5f\u4e2d\u8def\u4e1c80
p298
V\u8679\u6865\u8def
p299
sV\u4eba\u6c11\u897f\u8defs(\u95e8\u4e1c)\u957f\u6c5f\u4e2d\u8def\u9ad8\u67b6\u897f70&\u4efb\u6e2f\u95f8\u8def-\u9f99\u6f6d\u8def\u4e1c190
p300
V\u4eba\u6c11\u897f\u8def
p301
sV\u5d07\u5ddd\u8defs(\u95e8\u4e1c)\u661f\u57ce\u8def\u897f320&\u6d77\u971e\u8def\u4e1c185
p302
V\u5d07\u5ddd\u8def
p303
sV\u7389\u6811\u5317\u8def
p304
g304
sV\u80e1\u66f9\u8def
p305
g305
sV\u9752\u5e74\u4e1c\u8defn(\u95e8\u524d)\u76d8\u9999\u8def\u897f240&\u4e16\u4f26\u8def\u4e1c205
p306
V\u9752\u5e74\u4e1c\u8def
p307
sV\u4eba\u6c11\u4e2d\u8defn(\u95e8\u4e1c)\u5de5\u519c\u8def\u897f140&\u5e73\u5b89\u8def\u4e1c70
p308
V\u4eba\u6c11\u4e2d\u8def
p309
sV\u5e73\u6d77\u8def
p310
g310
sV\u78a7\u6ce2\u8def
p311
g311
sV\u5bcc\u9526\u8def
p312
g312
sV\u6587\u4e00\u897f\u8def
p313
g313
sV\u6cbf\u6cb3\u8defn(\u95e8\u897f)\u5de5\u519c\u5357\u8def\u897f145&\u6d77\u7aef\u8def\u4e1c25
p314
V\u6cbf\u6cb3\u8def
p315
sV\u6c5f\u5b66\u8def
p316
g316
sV\u59da\u6e2f\u8defe(\u95e8\u5317)\u8679\u6865\u8def\u5317470&\u9752\u5e74\u4e2d\u8def\u5357230
p317
V\u59da\u6e2f\u8def
p318
sS'Wukang Road'
p319
V\u6b66\u5eb7\u8def
p320
sV\u9752\u5e74\u897f\u8defn(\u95e8\u4e1c)\u59da\u6e2f\u8def\u897f360&\u4f53\u80b2\u9986\u4e1c\u8def\u4e1c220
p321
V\u9752\u5e74\u897f\u8def
p322
sV\u4eae\u79c0\u8def
p323
g323
sV\u949f\u79c0\u4e2d\u8defn(\u95e8\u897f)\u6fe0\u4e1c\u8def\u897f545&\u5317\u6fe0\u6865\u8def\u4e1c290
p324
V\u949f\u79c0\u4e2d\u8def
p325
sV\u5b89\u8fdc\u8def
p326
g326
sV\u5d07\u6587\u8defe(\u95e8\u5317)\u6c5f\u6dee\u8def\u531735&\u5d07\u5ddd\u8def\u5357385
p327
V\u5d07\u6587\u8def
p328
sV\u949f\u79c0\u4e2d\u8defn(\u95e8\u897f)\u6fe0\u4e1c\u8def\u897f545&\u5317\u6fe0\u6865\u8def\u4e1c295
p329
V\u949f\u79c0\u4e2d\u8def
p330
sV\u6cb3\u5357\u4e2d\u8def
p331
g331
sV\u767e\u82b1\u8857
p332
g332
sV\u57ce\u5c71\u8defw(\u95e8\u5357)\u957f\u6c5f\u5357\u8def\u5317165&\u6843\u56ed\u8def\u5357230
p333
V\u57ce\u5c71\u8def
p334
sV\u73af\u57ce\u4e1c\u8defw(\u95e8\u4e1c)\u6fe0\u5357\u8def\u5317185&\u73af\u57ce\u5357\u8def\u535730
p335
V\u73af\u57ce\u4e1c\u8def
p336
sV\u4e09\u65b0\u5317\u8def900\u5f04
p337
V\u4e09\u65b0\u5317\u8def
p338
sV\u82b3\u7538\u8def1155\u53f7
p339
V\u82b3\u7538\u8def
p340
sV\u6587\u6db5\u8def
p341
g341
sV\u6fe0\u9526\u8def15
p342
V\u6fe0\u9526\u8def
p343
sV\u6c38\u5609\u8def
p344
g344
sV\u5b9b\u5e73\u5357\u8def
p345
g345
sS'Shou Ning Road'
p346
V\u5bff\u5b81\u8def
p347
sS'Huyi Highway'
p348
V\u6caa\u5b9c\u516c\u8def
p349
sV\u6c99\u6d32\u897f\u8def
p350
g350
sS'Biyun Road '
p351
V\u78a7\u4e91\u8def
p352
sS'Chuansha Road'
p353
V\u5ddd\u6c99\u8def
p354
sV\u521b\u65b0\u8def
p355
g355
sV\u65b0\u5949\u516c\u8def
p356
g356
sV\u4eba\u6c11\u4e2d\u8def249\u53f7n(\u95e8\u897f)\u65b0\u6865\u8def\u897f105&\u5de5\u519c\u8def\u4e1c205
p357
V\u4eba\u6c11\u4e2d\u8def
p358
sV\u6559\u80b2\u8defs(\u95e8\u897f)\u4e94\u4e00\u8def\u897f755&\u5de5\u519c\u8def\u4e1c140
p359
V\u6559\u80b2\u8def
p360
sV\u5e9c\u524d\u8def
p361
g361
sS'Wensan West Road'
p362
V\u6587\u4e09\u897f\u8def
p363
sV\u6f4d\u574a\u8def
p364
g364
sV\u5546\u52a1\u5927\u9053
p365
g365
sV\u6fe0\u5317\u8defs(\u5317\u4fa7)\u5b69\u513f\u5df7\u5317\u8def\u897f520&\u53cc\u62e5\u897f\u8def\u4e1c15
p366
V\u6fe0\u5317\u8def
p367
sV\u62a5\u6625\u8def
p368
g368
sV\u661f\u6e56\u5927\u9053n(\u95e8\u897f)\u5e38\u9752\u8def\u897f240&\u5c71\u6c34\u8def\u4e1c610
p369
V\u661f\u6e56\u5927\u9053
p370
sV\u5f90\u5bb6\u6c47\u8def
p371
g371
sV\u6dde\u6caa\u8def
p372
g372
sS'North Avenue'
p373
V\u5927\u9053\u5317
p374
sV\u556c\u56ed\u8defs(\u5165\u53e3\u4e1c)\u56ed\u6797\u8def\u897f845&\u5de5\u519c\u5357\u8def\u4e1c260
p375
V\u556c\u56ed\u8def
p376
sV\u7d2b\u7405\u8def1\u53f7w(\u95e8\u4e1c)\u5357\u90ca\u8def\u5317210&\u4e09\u9c9c\u8857\u5357205
p377
V\u7d2b\u7405\u8def
p378
sV\u9526\u5c0a\u8def
p379
g379
sV\u6dde\u8679\u8def
p380
g380
sS'Jinan Garden'
p381
V\u6d4e\u5357\u5e02\u82b1\u56ed
p382
sV\u6587\u8bda\u8def
p383
g383
sV\u57ce\u5c71\u8defw(\u95e8\u5317)\u6c5f\u7eac\u8def\u5317105&\u6bb5\u5bb6\u575d\u8def\u5357100
p384
V\u57ce\u5c71\u8def
p385
sV\u5357\u5e02\u8857w(\u95e8\u5357)\u65b0\u534e\u8def\u5317130&\u5174\u9686\u8857\u5357165
p386
V\u5357\u5e02\u8857
p387
sV\u6fe0\u4e1c\u8defw(\u5e99\u5357)\u5317\u56ed\u8def\u5317310&\u6fe0\u5317\u8def\u5357145
p388
V\u6fe0\u4e1c\u8def
p389
sV\u4e94\u4e00\u8defw(\u95e8\u5357)\u9f99\u738b\u6865(\u4e1c)\u8def\u5317320&\u4eba\u6c11\u4e2d\u8def\u5357335
p390
V\u4e94\u4e00\u8def
p391
sV\u6c5f\u6d77\u8def
p392
g392
sV\u4e2d\u5c71\u5357\u4e8c\u8def
p393
g393
sV\u6881\u6eaa\u8def
p394
g394
sV\u6c5f\u5cb3\u8defn\u5e02\u5e9c\u8def\u897f330&\u4fe1\u8bbf\u8def\u4e1c370
p395
V\u6c5f\u5cb3\u8def
p396
sV\u6c38\u548c\u8defs(\u5927\u5730\u7535\u6c14\u95e8\u4e1c)\u901a\u4eac\u5927\u9053\u897f330&\u56fd\u5f3a\u8def\u4e1c680
p397
V\u6c38\u548c\u8def
p398
sV\u9f99\u4e1c\u8def
p399
g399
sV\u9646\u5bb6\u5634\u73af\u8def
p400
g400
sV\u5468\u795d\u516c\u8def
p401
g401
sV\u957f\u9038\u8def
p402
g402
sV\u6843\u56ed\u8defs\u5d07\u6587\u8def\u897f110&\u6d77\u98ce\u8857\u4e1c15
p403
V\u6843\u56ed\u8def
p404
sV\u6c5f\u7eac\u8defn(\u95e8\u897f\u4fa7)\u5de5\u519c\u5357\u8def\u897f460&\u57ce\u5c71\u8def\u4e1c335
p405
V\u6c5f\u7eac\u8def
p406
sV\u5174\u65b0\u8def
p407
g407
sV\u592a\u4ed3\u8def
p408
g408
sV\u957f\u548c\u8defn(\u95e8\u4e1c)\u6c38\u8fdb\u8def\u897f200&\u6c38\u548c\u8def\u4e1c195
p409
V\u957f\u548c\u8def
p410
sV\u8fdc\u666f\u8def
p411
g411
sV\u6842\u5e73\u8def
p412
g412
sS'Weihai Road'
p413
V\u5a01\u6d77\u8def
p414
sV\u8dc3\u9f99\u5357\u8defe(\u897f\u95e8\u5357)\u8679\u6865\u8def\u5317370&\u9752\u5e74\u4e2d\u8def\u5357515
p415
V\u8dc3\u9f99\u5357\u8def
p416
sV\u9f99\u6f6d\u8857\u9053\u5e9c\u524d\u8def
p417
g417
sV\u4fdd\u4e50\u8def
p418
g418
sS'Dong Ping Road'
p419
V\u6d1e\u576a\u8def
p420
sV\u6d59\u5927\u7389\u6cc9\u6821\u533a
p421
g421
sV\u6fe0\u897f\u8defe(\u95e8\u5357)\u4eba\u6c11\u4e2d\u8def\u531745&\u4e07\u8c61\u65b0\u8def\u5357210
p422
V\u6fe0\u897f\u8def
p423
sV\u767d\u6c99\u6cc9
p424
g424
sV\u6587\u5b9a\u8def
p425
g425
sV\u8fce\u4e50\u8def
p426
g426
sV\u5e78\u4e50\u8def
p427
g427
sV\u949f\u79c0\u4e2d\u8defn(\u95e8\u4e1c)\u4e94\u4e00\u8def\u897f250&\u5de5\u519c\u8def\u4e1c1045
p428
V\u949f\u79c0\u4e2d\u8def
p429
sV\u53e4\u68d5\u8def
p430
g430
sV\u4e8c\u73af\u897f\u8def
p431
g431
sV\u4efb\u6e2f\u8defs(\u95e8\u4e1c)\u6218\u80dc\u8def\u897f125&\u5916\u73af\u897f\u8def\u4e1c395(\u6fe0\u6cb3\u4f20\u5947\u95e8\u897f)
p432
V\u4efb\u6e2f\u8def
p433
sV\u72ec\u5885\u6e56\u9ad8\u6559\u533a
p434
g434
sV\u6811\u897f\u8def(\u6a2a)s(\u95e8\u4e1c)\u5510\u6811\u8def\u897f240&\u6811\u897f\u8def(\u7eb5)\u4e1c20
p435
V\u6811\u897f\u8def
p436
sS'West Nanjing Road'
p437
V\u5357\u4eac\u897f\u8def
p438
sV\u5609\u5317\u8857\u9053
p439
g439
sV\u5b81\u56fd\u8def
p440
g440
sV\u6fe0\u5317\u8defs(\u95e8\u897f)\u5317\u6fe0\u6865\u8def\u897f185&\u6a2a\u6cb3\u8def\u4e1c335
p441
V\u6fe0\u5317\u8def
p442
sV\u4e0a\u548c\u8def
p443
g443
sV\u9646\u5bb6\u5634\u897f\u8def
p444
g444
sV\u82b1\u6728\u8def
p445
g445
sV\u677e\u6c47\u4e2d\u8def1101\u5f04
p446
V\u677e\u6c47\u4e2d\u8def
p447
sV\u6fe0\u5317\u8defn(\u95e8\u897f)\u90ed\u91cc\u56ed\u8def\u897f&\u6fe0\u4e1c\u8def\u4e1c
p448
V\u6fe0\u5317\u8def
p449
sV\u4eba\u6c11\u4e2d\u8defs(\u5317\u4fa7)\u516b\u4ed9\u57ce\u6b65\u884c\u8857\u897f120&\u5357\u5927\u8857\u4e1c55
p450
V\u4eba\u6c11\u4e2d\u8def
p451
sV\u6d77\u9614\u8def
p452
g452
sV\u6b66\u4e1c\u8def
p453
g453
sV\u7965\u56ed\u8def
p454
g454
sS'wukang lu'
p455
V\u6b66\u5eb7\u8def
p456
sV\u77f3\u9f99\u8def
p457
g457
sS'E-Shan Rd'
p458
VE-\u9a6c\u978d\u5c71\u8def
p459
sV\u57ce\u6e2f\u8defn(\u95e8\u4e1c)\u6c5f\u6d77\u5927\u9053\u897f95&\u6c38\u626c\u8def\u4e1c290
p460
V\u57ce\u6e2f\u8def
p461
sV\u66a8\u9633\u897f\u8def
p462
g462
sV\u9ad8\u5cb8\u8857(\u6a2a)n(\u95e8\u4e1c)\u9ad8\u5cb8\u8857(\u7eb5)\u897f30\u9ad8\u5cb8\u8857(\u89d2)\u4e1c100(\u8fd1\u4e1c/\u897f\u5de5\u623f)
p463
V\u9ad8\u5cb8\u8857
p464
sV\u9ec4\u9642\u5317\u8def North Huangpi Road
p465
V\u9ec4\u9642\u5317\u8def
p466
sV\u6587\u4e8c\u897f\u8def
p467
g467
sV\u6587\u4e09\u8def
p468
g468
sV\u5317\u6731\u5bb6\u56ed\u8defn(\u95e8\u897f)\u8dc3\u9f99\u8def\u897f65&\u94c1\u661f\u652f\u8def\u4e1c270
p469
V\u5317\u6731\u5bb6\u56ed\u8def
p470
sS'1388 Huamu Road'
p471
V1388 \u82b1\u6728\u8def
p472
sV\u4ed9\u971e\u8def333\u53f710\u697c
p473
V\u4ed9\u971e\u8def
p474
sV\u798f\u6cc9\u8def
p475
g475
sV\u5927\u8fde\u897f\u8def40\u5f04 Lane 40 of West Dalian Road
p476
V\u5927\u8fde\u897f\u8def
p477
sV\u5170\u6eaa\u8def
p478
g478
sV\u6e05\u6eaa\u8def
p479
g479
sV\u949f\u79c0\u8defs(\u95e8\u897f)\u6821\u897f\u8def\u897f400&\u4e94\u4e00\u8def\u4e1c85
p480
V\u949f\u79c0\u8def
p481
sV\u6cd7\u9648\u516c\u8def
p482
g482
sV\u4e50\u90fd\u8def
p483
g483
sV\u8fd0\u4e50\u8def
p484
g484
sV\u7d2b\u4e1c\u8defe(\u5357\u95e8\u5357)\u9752\u5e74\u4e2d\u8def\u5317175&\u7d2b\u4e1c\u5357\u8def\u535710
p485
V\u7d2b\u4e1c\u8def
p486
sV\u9f99\u9a6c\u8def
p487
g487
sV\u9648\u6865\u8defe(\u4e3d\u9633\u82b1\u56ed\u95e8\u5317)\u96c6\u6167\u8def\u5317135&\u96c6\u5b89\u8def\u5357180
p488
V\u9648\u6865\u8def
p489
sS'Hongqiao Road'
p490
V\u8679\u6865\u8def
p491
sV\u901a\u76ca\u8def
p492
g492
sV\u4e0a\u4e2d\u897f\u8def West Shangzhong Road
p493
V\u4e0a\u4e2d\u897f\u8def
p494
sV\u9ad8\u65b0\u533a\u5546\u4e1a\u885718\u53f72-3\u697c
p495
V\u9ad8\u65b0\u533a\u5546\u4e1a\u8857
p496
sV\u5de5\u519c\u5357\u8defw\u5d07\u5ddd\u8def\u5317&\u4e16\u7eaa\u5927\u9053\u5357
p497
V\u5de5\u519c\u5357\u8def
p498
sV\u533b\u5b66\u9662\u8def
p499
g499
sS"Cao'an Road"
p500
V\u66f9\u5b89\u516c\u8def
p501
sS'East Hongxing Road'
p502
V\u7ea2\u661f\u4e1c\u8def
p503
sV\u4efb\u6e2f\u8defn(\u95e8\u4e1c)\u59da\u6e2f\u8def-\u5b69\u513f\u5df7\u5357\u8def\u897f300&\u4f53\u80b2\u9986\u4e1c\u8def\u4e1c240
p504
V\u4efb\u6e2f\u8def
p505
sV\u5efa\u56fd\u4e2d\u8def219\u53f7
p506
V\u5efa\u56fd\u4e2d\u8def
p507
sV\u8679\u6865\u8def Hongqiao Road
p508
V\u8679\u6865\u8def
p509
sV\u5a04\u5c71\u5173\u8def
p510
g510
sV\u89e3\u653e\u8def
p511
g511
sV\u6caa\u5357\u516c\u8def
p512
g512
sV\u6843\u56ed\u8defn(\u95e8\u524d)\u5d07\u5b89\u8def\u897f120&\u5de5\u519c\u5357\u8def\u4e1c210
p513
V\u6843\u56ed\u8def
p514
sV\u5357\u5927\u8857e\u517b\u8001\u9662\u8def\u531740&\u5065\u5eb7\u8def\u5357185
p515
V\u5357\u5927\u8857
p516
sV\u4e25\u6865\u8def
p517
g517
sV\u5b81\u6ce2\u8def
p518
g518
sS'WenSanLu DianZi XinXi JieQu, Xihu'
p519
V\u6587\u4e09\u8def
p520
sV\u957f\u5b89\u4e2d\u8def
p521
g521
sV\u5317\u56ed\u8defn(\u95e8\u897f)\u4e1c\u5347\u8def\u897f110&\u4e1c\u8d75\u5bb6\u5df7\u4e1c190
p522
V\u5317\u56ed\u8def
p523
sV\u9f99\u738b\u6865\u4e1c\u8defs(\u95e8\u4e1c)\u6821\u897f\u8def\u897f320&\u4e94\u4e00\u8def\u4e1c175
p524
V\u9f99\u738b\u6865\u4e1c\u8def
p525
sV\u5357\u5ddd\u56ed\u8defs(\u95e8\u4e1c)\u5357\u5ddd\u56ed\u5357\u5317\u8def\u897f40&\u5de5\u519c\u8def\u4e1c345
p526
V\u5357\u5ddd\u56ed\u8def
p527
sV\u9526\u6c5f\u7eb5\u8def(\u5317\u95e8\u5bf9\u9762)\u9526\u6c5f\u6a2a\u8def\u5317&\u949f\u79c0\u4e2d\u8def\u5357
p528
V\u9526\u6c5f\u7eb5\u8def
p529
sV\u7b4f\u5934\u4e61\u540e\u575e\u6751
p530
g530
sV\u901a\u5e08\u4e09\u9644\u5317\u4fa7\u8defn(\u5165\u53e3\u4e1c)\u4e94\u4e00\u8def\u897f125&\u5b66\u7d2b\u8def\u4e1c15
p531
V\u901a\u5e08\u4e09\u9644\u5317\u4fa7\u8def
p532
sV\u5357\u5c71\u8def89\u53f7
p533
V\u5357\u5c71\u8def
p534
sV\u4eba\u6c11\u4e2d\u8defs(\u95e8\u4e1c)\u5357\u5927\u8857\u897f310&\u73af\u57ce\u897f\u8def\u4e1c40
p535
V\u4eba\u6c11\u4e2d\u8def
p536
sV\u65b0\u5efa\u8defn(\u5357\u95e8\u4e1c)\u4f53\u80b2\u9986\u4e1c\u8def\u897f10&\u6218\u80dc\u8def\u4e1c265
p537
V\u65b0\u5efa\u8def
p538
sS'Chenhui Road'
p539
V\u6668\u6656\u8def
p540
sV\u6cbf\u6cb3\u8defs(\u95e8\u897f)115&\u5de5\u519c\u5357\u8def\u4e1c425
p541
V\u6cbf\u6cb3\u8def
p542
sV\u5173\u6cb3\u4e1c\u8def
p543
g543
sV\u8fb0\u82b1\u8def
p544
g544
sV\u6c38\u6021\u8defn(\u95e8\u897f)\u901a\u5b81\u5927\u9053\u897f185&\u901a\u751f\u8def\u4e1c360
p545
V\u6c38\u6021\u8def
p546
sV\u901a\u8d24\u8def
p547
g547
sV\u4ed9\u971e\u8def
p548
g548
sV\u5927\u5883\u8def
p549
g549
sV\u56fd\u80dc\u8defn(\u9b45\u529b\u57ce\u5165\u53e3\u4e1c)\u592a\u5e73\u8def\u897f205&\u80dc\u5229\u8def\u4e1c245
p550
V\u56fd\u80dc\u8def
p551
sV\u6c38\u8fdb\u8defe(\u95e8\u5357)\u4e2d\u73af\u8def\u5317120&\u9ec4\u6d77\u8def\u5357175
p552
V\u6c38\u8fdb\u8def
p553
sS'YanGao Road'
p554
V\u6768\u50b2\u8def
p555
sV\u4e1c\u5e73\u8def
p556
g556
sV\u4e30\u6f6d\u8def
p557
g557
sV\u6674\u5ddd\u8857
p558
g558
sV\u8f9b\u8015\u8def
p559
g559
sV\u6d66\u5efa\u8def207\u5f04
p560
V\u6d66\u5efa\u8def
p561
sV\u556c\u56ed\u8defs(\u5165\u53e3\u4e1c\u4fa7)\u901a\u5bcc\u5357\u8def\u897f1630&\u56ed\u6797\u8def\u4e1c415
p562
V\u556c\u56ed\u8def
p563
sV\u725b\u987f\u8def
p564
g564
sV\u6da6\u5dde\u8def
p565
g565
sV\u7ea2\u661f\u8defs(\u95e8\u5357)\u6da6\u65b0\u8def\u897f70&\u5de5\u519c\u5357\u8def\u4e1c285
p566
V\u7ea2\u661f\u8def
p567
sV\u5e73\u5174\u516c\u8def
p568
g568
sV\u5357\u671f\u660c\u8def
p569
g569
sV\u6bb5\u5bb6\u575d\u8defe(\u95e8\u5317)\u8679\u6865\u8def\u5317270&\u9752\u5e74\u4e2d\u8def\u5357245
p570
V\u6bb5\u5bb6\u575d\u8def
p571
sV\u6d59\u5927\u8def
p572
g572
sV\u56fd\u4fe1\u8def
p573
g573
sV\u9f99\u817e\u8def
p574
g574
sV\u6e05\u6cf0\u8857
p575
g575
sV\u534e\u5c71\u8def
p576
g576
sV\u6f20\u6cb3\u8def
p577
g577
sV\u6d77\u5b81\u8def
p578
g578
sS'Bund'
p579
V\u5916\u7058
p580
sV\u91d1\u90fd\u8def
p581
g581
sV\u6d9e\u4ead\u5317\u8def
p582
g582
sV\u5b81\u590f\u8def
p583
g583
sV\u6fe0\u4e1c\u8def168\u53f7e\u5317\u56ed\u8def\u531715&\u6fe0\u5317\u8def\u5357435
p584
V\u6fe0\u4e1c\u8def
p585
sV\u5f90\u6cfe.\u80b2\u624d\u8def
p586
V\u5f90\u6cfe
p587
sV\u5e02\u5fc3\u4e2d\u8def
p588
g588
sV\u6a2a\u5e97\u8defn(\u95e8\u897f)\u901a\u5b81\u5927\u9053\u897f215&\u957f\u6cf0\u8def\u4e1c680
p589
V\u6a2a\u5e97\u8def
p590
sV\u6d66\u4e1c\u5927\u9053
p591
g591
sV\u677f\u6865\u6a2a\u8defs(\u5317\u4fa7)\u65b0\u5e02\u8857\u897f145&\u677f\u6865\u7eb5\u8def\u4e1c20
p592
V\u677f\u6865\u6a2a\u8def
p593
sV\u5c71\u897f\u5357\u8def
p594
g594
sV\u5317\u7fe0\u8def
p595
g595
sV\u65b0\u677e\u6c5f\u8def
p596
g596
sS'GongKang Road'
p597
V\u5eb7\u8def
p598
sV\u84dd\u5929\u8def
p599
g599
sV\u65b0\u91d1\u6865\u8def
p600
g600
sS'Huyi Highway 3101'
p601
V\u6caa\u5b9c\u516c\u8def 3101
p602
sV\u6caa\u5357\u8def2731\u5f04
p603
V\u6caa\u5357\u8def
p604
sV\u5357\u6d0b\u5357\u8def
p605
g605
sV\u6e2f\u57ce\u5927\u9053
p606
g606
sV\u9ad8\u5e73\u8def
p607
g607
sV\u9752\u5e74\u4e2d\u8def178\u53f7n\u8dc3\u9f99(\u5357)\u8def\u897f105&\u8398\u56ed\u8def\u4e1c140
p608
V\u9752\u5e74\u4e2d\u8def
p609
sS'Yuanli Rd'
p610
V\u8881\u7acb\u8def
p611
sS'Fuxing West Road\n'
p612
V\u590d\u5174\u897f\u8def
p613
sV\u6c11\u751f\u8def
p614
g614
sV\u8336\u9675\u8def
p615
g615
sV\u4e2d\u5c71\u4e1c\u4e00\u8def East Zhongshan No.1 Road
p616
V\u4e2d\u5c71\u4e1c\u4e00\u8def
p617
sV\u4e1c\u56ed\u8def
p618
g618
sV\u5317\u5927\u8857e(\u95e8\u5317)\u949f\u79c0\u4e2d\u8def\u53171160&\u6c5f\u6d77\u5927\u9053\u5357205
p619
V\u5317\u5927\u8857
p620
sS'HuanQing Road'
p621
V\u73af\u5e86\u8def
p622
sV\u5f00\u9c81\u8def
p623
g623
sV\u519b\u5de5\u8def
p624
g624
sV\u6c11\u4eac\u8def
p625
g625
sV\u671d\u9633\u8defn(\u95e8\u897f)\u901a\u5bcc\u5317\u8def\u897f305&\u5b89\u5bcc\u8def\u4e1c240
p626
V\u671d\u9633\u8def
p627
sV\u6885\u5cad\u5317\u8def
p628
g628
sV\u4f53\u80b2\u573a\u8def
p629
g629
sS'Alley 2500, Xiupu Road'
p630
V\u5c0f\u5df7 2500\uff0c\u79c0\u6d66\u8def
p631
sV\u56db\u5e73\u8def
p632
g632
sV\u4e2d\u5c71\u5317\u8def
p633
g633
sS'ZuChongZhi Road'
p634
V\u7956\u51b2\u4e4b\u8def
p635
sV\u5b66\u7530\u5357\u8defn(\u95e8\u524d)\u4e94\u4e00\u8def\u897f320&\u5b66\u7530\u516c\u56ed\u8def\u4e1c40
p636
V\u5b66\u7530\u5357\u8def
p637
sV\u9752\u5e74\u897f\u8defs(\u95e8\u524d)\u4f53\u80b2\u9986\u4e1c\u8def\u897f225&\u6218\u80dc\u8def\u4e1c15
p638
V\u9752\u5e74\u897f\u8def
p639
sV\u901a\u7532\u8defs(\u95e8\u4e1c)\u592a\u5e73\u8def\u897f35&\u80dc\u5229\u8def\u4e1c485
p640
V\u901a\u7532\u8def
p641
sV\u949f\u79c0\u897f\u8defn(\u95e8\u897f)\u5317\u6fe0\u6865\u8def\u897f470&\u6fe0\u897f\u8def\u4e1c175
p642
V\u949f\u79c0\u897f\u8def
p643
sV\u79d1\u82d1\u8def
p644
g644
sV\u9752\u6d66\u533a\u76c8\u6e2f\u8def1006\u53f7
p645
V\u9752\u6d66\u533a\u76c8\u6e2f\u8def
p646
sV\u62f1\u79c0\u8def
p647
g647
sV\u5236\u9020\u5c40\u8def
p648
g648
sV\u957f\u6c5f\u4e2d\u8defn(\u5bf9\u95e8)\u6d2a\u6c5f\u8def\u897f315&\u59da\u6e2f\u8def\u4e1c640
p649
V\u957f\u6c5f\u4e2d\u8def
p650
sV\u5b69\u513f\u5df7\u5317\u8defw(\u95e8\u5317)\u98df\u54c1\u8def\u5317180&\u6fe0\u5317\u8def\u5357270
p651
V\u5b69\u513f\u5df7\u5317\u8def
p652
sV\u677e\u82b1\u4e00\u6751 Songhua Community #1
p653
V\u677e\u82b1\u4e00\u6751
p654
sV\u4e94\u4e00\u8defw\u9752\u5e74\u4e2d\u8def\u5317255&\u5b66\u7530\u5357\u8def\u5357205
p655
V\u4e94\u4e00\u8def
p656
sV\u66f9\u6768\u8def
p657
g657
sV\u4e07\u6e90\u8def
p658
g658
sV\u5317\u677e\u516c\u8def
p659
g659
sV\u6625\u4e2d\u8def
p660
g660
sV\u8398\u6ca5\u8def
p661
g661
sV\u5609\u677e\u4e2d\u8def
p662
g662
sV\u57ce\u5c71\u8defw(\u95e8\u5357)\u72fc\u5c71\u94b2\u4e1c\u5df7\u531785&\u9759\u6d77\u5546\u8d38\u8857\u5357205
p663
V\u57ce\u5c71\u8def
p664
sV\u4eba\u6c11\u897f\u8defs(\u7d2b\u9633\u65b0\u57ce\u5165\u53e3\u897f)\u5eb7\u5e73\u8def\u897f270&\u5916\u73af\u897f\u8def\u4e1c130
p665
V\u4eba\u6c11\u897f\u8def
p666
sV\u65b0\u534e\u8def
p667
g667
sV\u9ad8\u79d1\u897f\u8def
p668
g668
sV\u8d64\u5cf0\u8def
p669
g669
sV\u949f\u79c0\u4e2d\u8defn(\u5165\u53e3\u4e1c)\u5de5\u519c\u5317\u8def\u897f105&\u90ed\u91cc\u56ed\u8def\u4e1c355
p670
V\u949f\u79c0\u4e2d\u8def
p671
sV\u4e1c\u4fe1\u5927\u9053
p672
g672
sV\u5de5\u519c\u5317\u8defw(\u95e8\u5317)\u6c5f\u6d77\u5927\u9053\u5317425&\u6c38\u6021\u8def\u535760
p673
V\u5de5\u519c\u5317\u8def
p674
sV\u5c0f\u6cb3\u575d\u8def
p675
g675
sV\u6821\u897f\u8defe(\u95e8\u5357)\u4eba\u6c11\u4e2d\u8def\u5317160&\u4e2d\u65b0\u4e8c\u8def\u5357165
p676
V\u6821\u897f\u8def
p677
sV\u5317\u5927\u8857w(\u4e1c\u4fa7)\u6c38\u548c\u8def\u531740&\u6c38\u8fbe\u8def\u5357550
p678
V\u5317\u5927\u8857
p679
sV\u5317\u5c71\u8857
p680
g680
sV\u949f\u79c0\u4e1c\u8defn(\u95e8\u897f)\u6821\u897f\u8def\u897f150&\u4e94\u4e00\u8def\u4e1c320
p681
V\u949f\u79c0\u4e1c\u8def
p682
sV\u6fe0\u5357\u8def211\u53f7n(\u95e8\u897f)\u5e73\u5b89\u8def\u897f180&\u6fe0\u4e1c\u8def\u4e1c435
p683
V\u6fe0\u5357\u8def
p684
sV\u897f\u5e02\u8857s\u9ad8\u5cb8\u8857\u897f60&\u5927\u751f\u8def\u4e1c205
p685
V\u897f\u5e02\u8857
p686
sV\u5f00\u9c81\u4e09\u6751
p687
g687
sV\u6caa\u95f5\u8def
p688
g688
sV\u5ef6\u5b89\u897f\u8def
p689
g689
sV\u4ead\u67ab\u516c\u8def
p690
g690
sV\u6dee\u6d77\u4e2d\u8def1329\u53f7
p691
V\u6dee\u6d77\u4e2d\u8def
p692
sV\u4e94\u5e38\u5927\u9053
p693
g693
sS'Xiupu Road'
p694
V\u79c0\u6d66\u8def
p695
sS'Dingxi Road'
p696
V\u5b9a\u897f\u516c\u8def
p697
sS"Yan'an Road"
p698
V\u5ef6\u5b89\u8def
p699
sV\u72ee\u5c71\u8def
p700
g700
sV\u84ec\u83b1\u8def
p701
g701
sV\u6d2a\u6c5f\u8defn(\u95e8\u4e1c)\u6d2a\u6c5f\u4e1c\u8def\u897f505&\u6da6\u65b0\u8def\u4e1c30
p702
V\u6d2a\u6c5f\u8def
p703
sV\u7ade\u821f\u8def
p704
g704
sV\u6587\u6656\u8def
p705
g705
sV\u6ee8\u6e56\u8def
p706
g706
sV\u548c\u5e73\u8def
p707
g707
sV\u5357\u82cf\u5dde\u8def
p708
g708
sV\u5d07\u6587\u8defw(\u95e8\u5357)\u6c5f\u79c0\u8857\u531720&\u6c5f\u5b81\u8def\u5357160
p709
V\u5d07\u6587\u8def
p710
sV\u6c38\u626c\u8defw(\u95e8\u5357)\u9ec4\u6d77\u8def\u5317280&\u957f\u5174\u8def\u535750
p711
V\u6c38\u626c\u8def
p712
sV\u9752\u5e74\u4e2d\u8defn(\u95e8\u897f)\u901a\u5bcc\u5317\u8def\u897f175&\u76d8\u9999\u8def\u4e1c250
p713
V\u9752\u5e74\u4e2d\u8def
p714
sV\u660c\u9091\u8def
p715
g715
sV\u957f\u6c5f\u8fb9\u4e0a\u7684\u4e09\u5c94\u8defn
p716
V\u957f\u6c5f\u8fb9\u4e0a\u7684\u4e09\u5c94\u8def
p717
sV\u5c71\u6c34\u897f\u8def
p718
g718
sV\u6625\u7533\u8def
p719
g719
sV\u6885\u9647\u8def
p720
g720
sV\u6843\u56ed\u8defs(\u95e8\u897f)\u7d2b\u7405\u8def\u897f250&\u8dc3\u9f99\u8def\u4e1c210
p721
V\u6843\u56ed\u8def
p722
sV\u53ef\u4e50\u8def
p723
g723
sV\u6843\u56ed\u8defs(\u95e8\u897f)\u5d07\u5b66\u8def\u897f90&\u57ce\u5c71\u8def\u4e1c200
p724
V\u6843\u56ed\u8def
p725
sV\u6fe0\u5357\u8defn(\u95e8\u4e1c)\u5357\u5927\u8857\u897f80\u5065\u5eb7\u8def\u4e1c85
p726
V\u6fe0\u5357\u8def
p727
sV\u7af9\u56ed\u8def
p728
g728
sV\u8679\u6865\u8defn(\u95e8\u4e1c)\u671d\u971e\u8def\u897f375&\u60e0\u8679\u8def\u4e1c15
p729
V\u8679\u6865\u8def
p730
sV\u4e94\u4e00\u8defw(\u5165\u53e3\u5317)\u901a\u542f\u8def\u5317590&\u5357\u5ddd\u56ed\u8def\u5357175
p731
V\u4e94\u4e00\u8def
p732
sV\u9ec4\u6e21 \u2022 \u7eff\u82d1\u8def
p733
V\u9ec4\u6e21
p734
sV\u8679\u6865\u8defs(\u95e8\u4e1c)\u6bb5\u5bb6\u575d\u8def\u897f275&\u8dc3\u9f99\u5357\u8def\u4e1c245
p735
V\u8679\u6865\u8def
p736
sV\u56fd\u5c55\u8def
p737
g737
sV\u91d1\u677e\u8def
p738
g738
sV\u7fd4\u6bb7\u8def
p739
g739
sS'Wuzhong Rd.'
p740
V\u5434\u4e2d\u8def
p741
sV\u4e2d\u5c71\u4e1c\u8def
p742
g742
sV\u6fe0\u4e1c\u8defw(\u95e8\u5357)\u6fe0\u5317\u8def\u5317525&\u949f\u79c0\u8def\u5357270
p743
V\u6fe0\u4e1c\u8def
p744
sV\u5d07\u5ddd\u8defn(\u95e8\u897f)\u57ce\u5c71\u8def\u897f110&\u7d2b\u7405\u8def\u4e1c335
p745
V\u5d07\u5ddd\u8def
p746
sV\u4e5d\u65b0\u516c\u8def
p747
g747
sV\u9547\u5b81\u8def
p748
g748
sV\u73af\u6e56\u897f\u4e09\u8def
p749
g749
sV\u5b66\u5e9c\u8def
p750
g750
sV\u76db\u5cb8\u897f\u8def
p751
g751
sV\u91d1\u949f\u8def
p752
g752
sS'Haigang Ave.'
p753
V\u6d77\u6e2f\u5927\u9053
p754
sV\u5317\u6fe0\u6865\u8defe(\u5165\u53e3\u5357)\u949f\u79c0\u897f\u8def\u5317140&\u5fa1\u9526\u5357\u8def\u5357140
p755
V\u5317\u6fe0\u6865\u8def
p756
sV\u65b0\u5efa\u8defs(\u95e8\u4e1c)\u59da\u6e2f\u8def\u897f175&\u4f53\u80b2\u9986\u4e1c\u8def\u4e1c465
p757
V\u65b0\u5efa\u8def
p758
sV\u5de5\u519c\u5357\u8defw(\u4e1c\u4fa7)\u4e16\u7eaa\u5927\u9053\u5317165&\u6cbf\u6cb3\u8def\u5357490
p759
V\u5de5\u519c\u5357\u8def
p760
sV\u6c38\u5eb7\u8def
p761
g761
sV\u4e34\u6e2f\u8defs(\u5165\u53e3\u897f)\u5251\u5c71\u8def\u897f450&\u5c71\u6c34\u8def\u4e1c400
p762
V\u4e34\u6e2f\u8def
p763
sV\u521b\u5f3a1
p764
V\u521b\u5f3a
p765
sV\u6587\u6f9c\u8def
p766
g766
sV\u6797\u6e56\u8def
p767
g767
sV\u6c38\u6021\u8def
p768
g768
sV\u82b1\u56ed\u8defs(\u95e8\u4e1c)\u5de5\u519c\u5357\u8def\u897f645&\u57ce\u5c71\u8def\u4e1c45
p769
V\u82b1\u56ed\u8def
p770
sV\u67a3\u5e84\u8def
p771
g771
sV\u9655\u897f\u5317\u8def66\u53f7\u79d1\u6069\u56fd\u9645\u4e2d\u5fc3
p772
V\u9655\u897f\u5317\u8def
p773
sV\u82b1\u56ed\u8defn(\u95e8\u4e1c)\u6c38\u7ea2\u8def\u5317255&\u5de5\u519c\u5357\u8def\u4e1c210
p774
V\u82b1\u56ed\u8def
p775
sV\u6587\u5e99\u8def
p776
g776
sV\u68d5\u6988\u8def
p777
g777
sV\u57ce\u5357\u5927\u9053
p778
g778
sS'Min Li Road'
p779
V\u674e\u8def
p780
sV\u6843\u575e\u8defs(\u5317\u4fa7)\u8dc3\u9f99\u8def\u897f35&\u8398\u56ed\u8def\u4e1c340
p781
V\u6843\u575e\u8def
p782
sV\u4e94\u4e00\u8defe(\u95e8\u5317)\u5b66\u7530\u5357\u8def\u5317370&\u4e09\u9644\u8def\u535775
p783
V\u4e94\u4e00\u8def
p784
sV\u957f\u6cf0\u8defn(\u95e8\u897f)\u9648\u6865\u8def\u897f230&\u60e0\u6c11\u8def\u4e1c340
p785
V\u957f\u6cf0\u8def
p786
sV\u957f\u767d\u4e8c\u6751 Changbai Community #2
p787
V\u957f\u767d\u4e8c\u6751
p788
sV\u9ec4\u6d77\u8defn(\u95e8\u4e1c)\u6c38\u626c\u8def\u897f155&\u6c38\u548c\u8def\u4e1c215
p789
V\u9ec4\u6d77\u8def
p790
sV\u5317\u6fe0\u897f\u8defw(\u5317\u6fe0\u6865\u65b0\u6751\u5185)\u6fe0\u5317\u8def\u5317375&\u9526\u7ee3\u8def\u535735
p791
V\u5317\u6fe0\u897f\u8def
p792
sV\u6d59\u6c5f\u4e2d\u8def
p793
g793
sS'Tiyuchang Road'
p794
V\u4f53\u80b2\u573a\u8def
p795
sV\u6caa\u677e\u516c\u8def
p796
g796
sV\u53e4\u5317\u8def
p797
g797
sV\u6fe0\u5317\u8defn(\u95e8\u4e1c)\u6fe0\u4e1c\u8def\u897f95&\u5317\u6fe0\u6865\u8def\u4e1c485
p798
V\u6fe0\u5317\u8def
p799
sV\u6ee8\u76db\u8def
p800
g800
sS'#3999 XiuPu Road'
p801
V#3999 \u79c0\u6d66\u8def
p802
sV\u9e64\u6d9b\u8defn(\u95e8\u4e1c)\u798f\u8fbe\u8def\u897f55&\u798f\u8fdc\u8def\u4e1c220
p803
V\u9e64\u6d9b\u8def
p804
sV\u9752\u5e74\u4e1c\u8defs(\u95e8\u4e1c)\u5de5\u519c\u8def\u897f275&\u57ce\u5c71\u8def\u4e1c495
p805
V\u9752\u5e74\u4e1c\u8def
p806
sV\u91d1\u4e30\u8def
p807
g807
sV\u5c71\u6c34\u8defn(\u5165\u53e3\u897f)\u5de5\u519c\u5357\u8def\u897f425&\u5251\u5c71\u8def\u4e1c20
p808
V\u5c71\u6c34\u8def
p809
sV\u671d\u6656\u5357\u8defw(\u4e1c\u4fa7)\u6c5f\u7eac\u8def\u531715\u671d\u6656\u73af\u8def\u5357245(\u671d\u6656\u5357\u95e8)
p810
V\u671d\u6656\u5357\u8def
p811
sV\u4e09\u65b0\u5317\u8def
p812
g812
sV\u5170\u5d69\u8def
p813
g813
sS'Alley 9, Xiuyan Road'
p814
V\u5c0f\u5df7 9\uff0c\u5cab\u5ca9\u8def
p815
sV\u56db\u5ddd\u5317\u8def
p816
g816
sV\u4e30\u5e86\u8def
p817
g817
sV\u96f6\u9675\u5317\u8def
p818
g818
sV\u5927\u897f\u8def
p819
g819
sV\u90af\u90f8\u8def
p820
g820
sV\u65b0\u5858\u8def
p821
g821
sV\u4e0a\u4e2d\u8def
p822
g822
sS'Dong Zhu An Bang Road'
p823
V\u4e1c\u73e0\u6d5c\u8def
p824
sV\u6caa\u4ead\u5317\u8def
p825
g825
sV\u8363\u4e50\u4e2d\u8def
p826
g826
sV\u9752\u5e74\u4e2d\u8defs(\u95e8\u524d)\u5de5\u519c\u8def\u897f555&\u57ce\u5c71\u8def\u4e1c205
p827
V\u9752\u5e74\u4e2d\u8def
p828
sV\u5b9a\u897f\u8def
p829
g829
sV\u5343\u9633\u5357\u8def
p830
g830
sV\u6587\u4e09\u897f\u8def
p831
g831
sV\u5de5\u519c\u8defe(\u95e8\u524d)\u5b66\u7530\u8def\u5317195&\u5b66\u7530\u5317\u8def\u535745
p832
V\u5de5\u519c\u8def
p833
sV\u8679\u6865\u8defn(\u95e8\u897f)\u57ce\u5c71\u8def\u897f175&\u6bb5\u5bb6\u575d\u8def\u4e1c185
p834
V\u8679\u6865\u8def
p835
sV\u91d1\u6c99\u6c5f\u8def
p836
g836
sS'QingShuiQiao Road'
p837
V\u6e05\u6c34\u6865\u8def\u8def
p838
sV\u4e16\u7eaa\u5927\u9053
p839
g839
sV\u5927\u8fde\u897f\u8def30\u5f04 Lane 30 of West Dalian Road
p840
V\u5927\u8fde\u897f\u8def
p841
sV\u94f6\u57ce\u4e2d\u8def
p842
g842
sV\u5eb7\u5b9a\u8def
p843
g843
sV\u4e73\u5c71\u8def
p844
g844
sV\u5357\u9633\u8def
p845
g845
sV\u8363\u4e50\u897f\u8def
p846
g846
sV\u601d\u8d24\u8def
p847
g847
sV\u4ead\u5e73\u8defn\u4e30\u6cf0\u4e8c\u8def\u897f&\u5510\u6811\u8def\u4e1c
p848
V\u4ead\u5e73\u8def
p849
sV\u6625\u5149\u8def
p850
g850
sV\u9752\u6d66\u533a\u76c8\u6e2f\u8def1002\u53f7
p851
V\u9752\u6d66\u533a\u76c8\u6e2f\u8def
p852
sV\u4e4c\u9c81\u6728\u9f50\u5357\u8def
p853
g853
sV\u4eba\u6c11\u4e1c\u8defn(\u5165\u53e3\u897f)\u6821\u897f\u8def\u897f310&\u901a\u4eac\u5927\u9053\u8def\u4e1c60
p854
V\u4eba\u6c11\u4e1c\u8def
p855
sV\u9f99\u7720\u5927\u9053
p856
g856
sV\u57ce\u6e2f\u8def155\u53f7s(\u95e8\u897f)\u5927\u751f\u8def\u897f205&\u82a6\u6cfe\u8def\u4e1c635
p857
V\u57ce\u6e2f\u8def
p858
sV\u5de5\u519c\u8defe(\u95e8\u5317)\u5b66\u7530\u5357\u8def-\u6587\u5cf0\u652f\u8def\u5317155&\u6fe0\u5357\u8def\u5357145
p859
V\u5de5\u519c\u8def
p860
sS'Dalian Road'
p861
V\u5927\u8fde\u8def
p862
sV\u5317\u82cf\u5dde\u8def
p863
g863
sV\u83ab\u90aa\u8def
p864
g864
sV\u5de5\u519c\u5357\u8defe(\u5165\u53e3\u5317)\u6843\u56ed\u8def\u5317195&\u5d07\u5ddd\u8def\u5357405
p865
V\u5de5\u519c\u5357\u8def
p866
sV\u6c38\u6021\u8defs(\u95e8\u897f)\u5e78\u798f\u5927\u9053\u897f235&\u901a\u5b81\u5927\u9053\u4e1c130
p867
V\u6c38\u6021\u8def
p868
sV\u4e2d\u5c71\u5357\u8def
p869
g869
sV\u4f58\u5317\u516c\u8def
p870
g870
sV\u957f\u65b0\u8defw(\u95e8\u5357)\u6021\u4e91\u8def\u531765&\u6c5f\u6d77\u5927\u9053\u5357245
p871
V\u957f\u65b0\u8def
p872
sV\u751c\u7231\u8def
p873
g873
sV\u57ce\u5c71\u8defw(\u7ad9\u5357)\u9759\u6d77\u5546\u8d38\u8857\u5317110&\u82b1\u56ed\u8def\u5357
p874
V\u57ce\u5c71\u8def
p875
sS'Xiangyin Road, Yangpu District'
p876
V\u6768\u6d66\u533a\u7fd4\u6bb7\u8def
p877
sS'Zhongxin Road'
p878
V\u4e2d\u5174\u8def
p879
sV\u4e16\u7eaa\u5927\u9053\u5357\u5c0f\u533a\u5185\u5d07\u5b66\u8def\u897f&\u57ce\u5c71\u8def\u4e1c
p880
V\u4e16\u7eaa\u5927\u9053\u5357\u5c0f\u533a\u5185\u5d07\u5b66\u8def\u897f
p881
sV\u7389\u6811\u8def
p882
g882
sV\u77f3\u91cc\u5934
p883
g883
sV\u4e09\u6da6\u8defw(\u533b\u9662\u8f66\u68da\u5f31\u7535\u7aa8\u4e95\u5185)\u6c38\u548c\u8def\u5317125&\u6c38\u7965\u8def\u5357180
p884
V\u4e09\u6da6\u8def
p885
sV\u4efb\u6e2f\u8defs(\u95e8\u4e1c)\u4f53\u80b2\u9986\u4e1c\u8def\u897f40&\u6218\u80dc\u8def\u4e1c290
p886
V\u4efb\u6e2f\u8def
p887
sS'Yining Rd'
p888
V\u4e00\u5b81\u8def
p889
sV\u5efa\u534e\u8def
p890
g890
sV\u798f\u5229\u8defn(\u5357\u4fa7)\u798f\u8fdc\u8def\u897f330&\u901a\u5218\u516c\u8def\u4e1c50
p891
V\u798f\u5229\u8def
p892
sV\u8499\u81ea\u8def
p893
g893
sV\u5e73\u9675\u8857
p894
g894
sV\u56ed\u4e2d\u8def
p895
g895
sV\u4f58\u5929\u6606\u516c\u8def
p896
g896
sV\u7eff\u5730\u5927\u9053
p897
g897
sV\u5f20\u4e1c\u8def
p898
g898
sV\u957f\u6cf0\u8defe(\u95e8\u5317)\u6021\u4e91\u8def\u5317170&\u6c5f\u6d77\u5927\u9053\u5357200
p899
V\u957f\u6cf0\u8def
p900
sV\u5357\u4eac\u4e1c\u8def
p901
g901
sV\u60e0\u6c11\u8defw(\u897f\u4fa7\u5bf9\u9762)\u96c6\u9526\u8def\u5317215&\u96c6\u7f8e\u8def\u535760
p902
V\u60e0\u6c11\u8def
p903
sS'Gaoyou Lu'
p904
V\u9ad8\u90ae\u5e02\u8def
p905
sV\u4eba\u6c11\u4e2d\u8defn(\u5357\u4fa7)\u6fe0\u4e1c\u8def\u897f290&\u73af\u57ce\u4e1c\u8def\u4e1c35
p906
V\u4eba\u6c11\u4e2d\u8def
p907
sV\u53e4\u58a9\u8def
p908
g908
sV\u95f8\u5317\u533a\u4fdd\u5fb7\u8def
p909
g909
sV\u57ce\u6e2f\u8def37\u53f7s(\u95e8\u4e1c)\u6c38\u626c\u8def\u897f10&\u5174\u6cf0\u8def-\u6c38\u548c\u8def\u4e1c470
p910
V\u57ce\u6e2f\u8def
p911
sV\u4e16\u7eaa\u5927\u9053399\u53f7s(\u95e8\u897f)\u957f\u6c5f\u4e2d\u8def\u9ad8\u67b6\u4e1c160&\u8dc3\u9f99\u5357\u8def\u897f400
p912
V\u4e16\u7eaa\u5927\u9053
p913
sS'Taian Lu'
p914
V\u6cf0\u5b89\u8def
p915
sS'Huaihai Street'
p916
V\u6dee\u6d77\u8857
p917
sV\u5f20\u8861\u8def
p918
g918
sV\u957f\u65b0\u4e1c\u8defe(\u5bf9\u9762)\u6021\u4e91\u8def\u5317240&\u6c5f\u6d77\u5927\u9053\u535740
p919
V\u957f\u65b0\u4e1c\u8def
p920
sV\u5929\u5c71\u8def
p921
g921
sV\u8087\u5609\u6d5c\u8def
p922
g922
sS'Yu Yuan Road'
p923
V\u611a\u56ed\u8def
p924
sS'S308'
p925
VS308
p926
sV\u4e16\u7eaa\u5927\u9053n(\u95e8\u4e1c)\u6d77\u7aef\u8def\u897f210&\u57ce\u5c71\u8def\u4e1c335
p927
V\u4e16\u7eaa\u5927\u9053
p928
sS'Pudong avenue'
p929
V\u6d66\u4e1c\u5927\u9053
p930
sS'Wukang'
p931
V\u6b66\u5eb7
p932
sS'Wenchang Road'
p933
V\u6587\u660c\u8def
p934
sS'Zhizhaoju Road'
p935
VZhizhaoju \u8def
p936
sV\u56ed\u6797\u8defe(\u95e8\u5357)\u56fd\u80dc\u8def\u5317285&\u4eba\u6c11\u4e2d\u8def\u5357280
p937
V\u56ed\u6797\u8def
p938
sV\u949f\u79c0\u4e1c\u8defs(\u95e8\u4e1c)\u65b0\u5e02\u8857\u897f235&\u5de5\u519c\u8def\u4e1c720
p939
V\u949f\u79c0\u4e1c\u8def
p940
sV\u4e50\u8363\u4e2d\u8def
p941
g941
sV\u5510\u9646\u516c\u8def
p942
g942
sV\u6dde\u5357\u8def
p943
g943
sV\u6d77\u601d\u8def
p944
g944
sV\u73af\u57ce\u5357\u8defn(\u95e8\u524d)\u73af\u57ce\u4e1c\u8def\u897f345&\u5357\u5927\u8857\u4e1c15
p945
V\u73af\u57ce\u5357\u8def
p946
sV\u5317\u6fe0\u6865\u8defw(\u95e8\u5357)\u6fe0\u5317\u8def\u5317515&\u949f\u79c0\u4e2d\u8def\u535795
p947
V\u5317\u6fe0\u6865\u8def
p948
sV\u91d1\u79d1\u8def
p949
g949
sV\u5b89\u5b81\u8def26\u5f04
p950
V\u5b89\u5b81\u8def
p951
sV\u659c\u571f\u8def
p952
g952
sV\u6c38\u5174\u8def
p953
g953
sV\u5408\u5b9d\u8def
p954
g954
sS'Xianxia Road'
p955
V\u4ed9\u971e\u8def
p956
sV\u65bd\u65b0\u8def
p957
g957
sV\u6c38\u56fa\u8defn(\u95e8\u4e1c)\u957f\u6cf0\u8def\u897f255&\u6cb3\u4e1c\u4e8c\u8def\u4e1c195
p958
V\u6c38\u56fa\u8def
p959
sV\u6c38\u4e30\u8def
p960
g960
sV\u4efb\u6e2f\u8defn(\u95e8\u897f)\u6218\u80dc\u8def\u897f450&\u5916\u73af\u897f\u8def\u4e1c30
p961
V\u4efb\u6e2f\u8def
p962
sV\u960a\u80e5\u8def
p963
g963
sV\u8d8a\u6c5f\u8defs(\u95e8\u897f)\u5916\u73af\u897f\u8def-\u57ce\u6e2f\u8def\u897f975&\u901a\u6e2f\u8def\u4e1c15
p964
V\u8d8a\u6c5f\u8def
p965
sV\u897f\u6eaa\u8def Xixi Road
p966
V\u897f\u6eaa\u8def
p967
sV\u5de5\u519c\u8defw(\u5165\u53e3\u5357)\u6fe0\u5357\u8def\u5317210&\u9f99\u738b\u6865\u8def\u5357445
p968
V\u5de5\u519c\u8def
p969
sV\u7c73\u6cc9\u5357\u8def26\u53f7
p970
V\u7c73\u6cc9\u5357\u8def
p971
sV\u4ed9\u971e\u8def333\u53f7
p972
V\u4ed9\u971e\u8def
p973
sS'Dong Da Ming Road'
p974
V\u5927\u660e\u4e1c\u8def
p975
sV\u6797\u6e56\u8def Linhu Road
p976
V\u6797\u6e56\u8def
p977
sV\u5927\u8fde\u8def
p978
g978
sV\u6885\u9f99\u8def
p979
g979
sV\u5de5\u519c\u8defw(\u95e8\u5357)\u8679\u6865\u8def\u5317425&\u5357\u5ddd\u56ed\u8def\u535730
p980
V\u5de5\u519c\u8def
p981
sV\u5858\u897f\u4e2d\u8def
p982
g982
sV\u6f15\u6eaa\u5317\u8def North Caoxi Road
p983
V\u6f15\u6eaa\u5317\u8def
p984
sS'Huichuan Road, Changning Road'
p985
V\u6c47\u5ddd\u8def\u3001 \u957f\u5b81\u8def
p986
sV\u4e16\u7eaa\u5927\u9053n(\u95e8\u4e1c)\u57ce\u5c71\u8def\u897f60&\u7d2b\u7405\u8def\u4e1c360
p987
V\u4e16\u7eaa\u5927\u9053
p988
sV\u897f\u5e02\u8857s(\u5165\u53e3\u4e1c)\u5357\u5e02\u8857-\u5317\u5e02\u8857\u897f65&\u9ad8\u5cb8\u8857\u4e1c305
p989
V\u897f\u5e02\u8857
p990
sV\u6c38\u4e50\u8def
p991
g991
sV\u9547\u5317\u8def
p992
g992
sV\u573a\u5317\u8def
p993
g993
sV\u5357\u6d0b\u4e1c\u8def
p994
g994
sV\u56fd\u5f3a\u8def
p995
g995
sV\u6fe0\u897f\u8defe(\u95e8\u5317)\u949f\u79c0\u4e2d\u8def\u5317115&\u4e91\u79c0\u8def\u5357265
p996
V\u6fe0\u897f\u8def
p997
sV\u5a01\u6d77\u8def
p998
g998
sV\u6d9e\u5bc5\u8def
p999
g999
sV\u4eba\u6c11\u8def
p1000
g1000
sV\u9ec4\u6d66\u8def
p1001
g1001
sV\u6f4d\u574a\u897f\u8def
p1002
g1002
sV\u9f99\u5ddd\u5317\u8def
p1003
g1003
sV\u677e\u84b8\u516c\u8def
p1004
g1004
sV\u56fd\u80dc\u8defs(\u95e8\u4e1c)\u661f\u57ce\u8def\u897f220&\u56ed\u6797\u8def\u4e1c100
p1005
V\u56fd\u80dc\u8def
p1006
sV\u57ce\u5357
p1007
g1007
sV\u5149\u590d\u897f\u8def
p1008
g1008
sV\u65b0\u534e\u8defn(\u95e8\u4e1c)\u539a\u751f\u8def\u897f45&\u5927\u751f\u8def\u4e1c325
p1009
V\u65b0\u534e\u8def
p1010
sS'Fangzhou Road'
p1011
V\u65b9\u821f\u8def
p1012
sV\u5fb7\u90fd\u8def
p1013
g1013
sV\u6d77\u79c0\u8857w(\u95e8\u5317)\u5d07\u5ddd\u8def\u531775&\u6c5f\u79c0\u8def\u4e1c75
p1014
V\u6d77\u79c0\u8857
p1015
sV\u7389\u53e4\u8def Yugu Road
p1016
V\u7389\u53e4\u8def
p1017
sS'TongYi Road'
p1018
V\u540c\u76ca\u8def
p1019
sV\u76ca\u6c5f\u8def
p1020
g1020
sV\u65b0\u534e\u8defs(\u95e8\u897f)\u5e73\u5b81\u8def\u897f275&\u5e02\u5317\u8def\u4e1c130
p1021
V\u65b0\u534e\u8def
p1022
sV\u6021\u56ed\u65b0\u82d1\u8defe(\u5317\u95e8\u5357)\u6c38\u56fa\u8def\u5317165&\u6c38\u548c\u8def\u535770
p1023
V\u6021\u56ed\u65b0\u82d1\u8def
p1024
sV\u611a\u56ed\u4e1c\u8def
p1025
g1025
sV\u5f18\u7fd4\u8def
p1026
g1026
sS'ZhongShangNanEr Lu'
p1027
V\u4e2d\u5c71\u5357\u4e8c\u8def
p1028
sV\u5bc6\u4e91\u8def444\u5f04 Lane 444 of Miyun Road
p1029
V\u5bc6\u4e91\u8def
p1030
sV\u79d1\u521b\u56ed\u5317\u8defn\u79d1\u521b\u56ed\u4e2d\u8def\u897f5&\u592a\u5e73\u8def\u4e1c100
p1031
V\u79d1\u521b\u56ed\u5317\u8def
p1032
sV\u5916\u73af\u897f\u8defw(\u95e8\u5357)\u8679\u6865\u8def\u5317260&\u8679\u897f\u8def\u535715
p1033
V\u5916\u73af\u897f\u8def
p1034
sV\u5ef6\u5409\u4e1c\u8def82\u5f04 Lane 82 of East Yanji Road
p1035
V\u5ef6\u5409\u4e1c\u8def
p1036
sV\u5c27\u5316\u95e8
p1037
g1037
sS'Xin Shi Road'
p1038
V\u65b0\u5e02\u8def
p1039
sV\u65b0\u5e02\u897f\u8defn(\u95e8\u4e1c)\u957f\u6cf0\u8def\u897f245&\u6cb3\u4e1c\u4e8c\u8def\u4e1c130
p1040
V\u65b0\u5e02\u897f\u8def
p1041
sV\u96c6\u9526\u8defn(\u95e8\u4e1c)\u60e0\u6c11\u8def\u897f180&\u6811\u897f\u8def\u4e1c210
p1042
V\u96c6\u9526\u8def
p1043
sV\u4e1c\u5ddd\u8def
p1044
g1044
sV\u83b1\u9633\u8def
p1045
g1045
sV\u9c81\u73ed\u8def
p1046
g1046
sV\u4e1c\u6ce2\u8def
p1047
g1047
sV\u5de5\u519c\u5357\u8defw(\u897f\u4fa7)\u957f\u6c5f\u5357\u8def\u5317285&\u6843\u56ed\u8def\u5357175
p1048
V\u5de5\u519c\u5357\u8def
p1049
sV\u60e0\u6c11\u8defw(\u95e8\u5317)\u96c6\u6167\u8def\u5317100&\u96c6\u5b89\u8def\u5357205
p1050
V\u60e0\u6c11\u8def
p1051
sV\u6210\u90fd\u5317\u8def
p1052
g1052
sV\u535a\u5b66\u8def
p1053
g1053
sV\u57ce\u5c71\u8defw(\u661f\u7a0b\u9152\u5e97\u95e8\u5317)\u6843\u56ed\u8def\u5317235&\u5d07\u5ddd\u8def\u5357420
p1054
V\u57ce\u5c71\u8def
p1055
sV\u677e\u6c5f\u4eba\u6c11\u5317\u8def
p1056
g1056
sV\u6fe0\u5317\u8defn\u65b0\u9f99\u8def\u897f25&\u5de5\u519c\u8def\u4e1c175
p1057
V\u6fe0\u5317\u8def
p1058
sV\u6c5f\u5c9a\u8857n(\u95e8\u4e1c)\u6d77\u5c9a\u885755&\u5de5\u519c\u8f85\u9053\u4e1c85
p1059
V\u6c5f\u5c9a\u8857
p1060
sS'106 Zhongjiang Road'
p1061
V106 \u4e2d\u6c5f\u8def
p1062
sV\u5317\u7fdf\u8def
p1063
g1063
sV\u4e1c\u5b89\u8def
p1064
g1064
sV\u5de5\u519c\u8defw(\u95e8\u5317)\u9752\u5e74\u4e2d\u8def\u5317210&\u5b66\u7530\u5357\u8def-\u6587\u5cf0\u652f\u8def\u5357305
p1065
V\u5de5\u519c\u8def
p1066
sV\u5357\u4eac\u897f\u8def
p1067
g1067
sV\u592a\u5e73\u8defw(\u95e8\u5317)\u56fd\u80dc\u8def\u5317740&\u4eba\u6c11\u4e1c\u8def\u535795
p1068
V\u592a\u5e73\u8def
p1069
sV\u5357\u90ca\u8defn(\u95e8\u4e1c)\u57ce\u5c71\u8def\u897f270&\u7d2b\u7405\u8def\u4e1c245
p1070
V\u5357\u90ca\u8def
p1071
sV\u8679\u6f15\u5357\u8def
p1072
g1072
sV\u660e\u73e0\u8def
p1073
g1073
sV\u5927\u6728\u6865\u8def
p1074
g1074
sV\u6caa\u9752\u5e73\u516c\u8def
p1075
g1075
sV\u6dee\u6d77\u897f\u8def
p1076
g1076
sV\u767e\u8272\u8def
p1077
g1077
sV\u5b69\u513f\u5df7\u5357\u8def50-3#w(\u95e8\u5317)\u82b1\u6728\u8def\u5317125&\u4eba\u6c11\u4e2d-\u897f\u8def\u5357195
p1078
V\u5b69\u513f\u5df7\u5357\u8def
p1079
sV\u4e1c\u6c5f\u6e7e\u8def
p1080
g1080
sV\u6d2a\u6c5f\u8defs(\u95e8\u4e1c)\u8dc3\u9f99\u5357\u8def\u897f310&\u957f\u6c5f\u4e2d\u8def\u4e1c470
p1081
V\u6d2a\u6c5f\u8def
p1082
sV\u4e91\u5b89\u652f\u8defn(\u95e8\u897f)\u4e91\u5b89\u8def\u897f140&\u6bd3\u79c0\u8def\u4e1c15
p1083
V\u4e91\u5b89\u652f\u8def
p1084
sS'Huqingping Road'
p1085
V\u6caa\u9752\u5e73\u516c\u8def
p1086
sV\u6c11\u5b89\u8defw(\u6c11\u5b89\u82b1\u82d1\u5357\u95e8)\u6c5f\u6d77\u5927\u9053\u5317100&\u6e2f\u8fbe\u8def\u5357180
p1087
V\u6c11\u5b89\u8def
p1088
sS'Yongfu Rd.'
p1089
V\u6c38\u798f\u8def
p1090
sV\u9f99\u5174\u8def
p1091
g1091
sV\u4efb\u6e2f\u8defn(\u95e8\u4e1c)\u5916\u73af\u897f\u8def\u897f595&\u957f\u6c5f\u4e2d\u8def\u4e1c340
p1092
V\u4efb\u6e2f\u8def
p1093
sS'15 Hangda Road'
p1094
V15 \u676d\u5927\u8def
p1095
sV\u6885\u56ed\u8def
p1096
g1096
sV\u521b\u4e1a\u8def
p1097
g1097
sS'Suhong Zhong Road'
p1098
V\u82cf\u8679\u4e2d\u8def
p1099
sV\u65b0\u9ec4\u8def
p1100
g1100
sV\u6768\u9ad8\u5357\u8def5678\u53f7
p1101
V\u6768\u9ad8\u5357\u8def
p1102
sV\u9752\u5e74\u4e2d\u8defs(\u95e8\u4e1c)\u57ce\u5c71\u8def\u897f240&\u6bb5\u5bb6\u575d\u8def\u4e1c260
p1103
V\u9752\u5e74\u4e2d\u8def
p1104
sV\u9752\u5e74\u897f\u8def208\u53f7n(\u95e8\u897f)\u60e0\u8679\u8def\u897f425&\u5916\u73af\u897f\u8def\u4e1c40
p1105
V\u9752\u5e74\u897f\u8def
p1106
sV\u5916\u6ee9\u8defs(\u5916\u6ee9\u5317\u82d123\u5e62)\u5916\u73af\u897f\u8def\u897f355&\u957f\u6c5f\u4e2d\u8def\u4e1c360
p1107
V\u5916\u6ee9\u8def
p1108
sS'Yejiazhai Road'
p1109
VYejiazhai \u8def
p1110
sV\u6587\u5cf0\u652f\u8def(\u6a2a)s(\u95e8\u897f)\u5de5\u519c\u8def\u897f205&\u6587\u5cf0\u652f\u8def(\u7eb5)\u4e1c95
p1111
V\u6587\u5cf0\u652f\u8def
p1112
sV\u4e50\u90fd\u897f\u8def
p1113
g1113
sV\u4e16\u7eaa\u5927\u9053n(\u95e8\u4e1c)\u8dc3\u9f99\u5357\u8def\u897f50&\u957f\u6c5f\u4e2d\u8def\u9ad8\u67b6\u4e1c495
p1114
V\u4e16\u7eaa\u5927\u9053
p1115
sV\u4e91\u53f0\u8def
p1116
g1116
sV\u5317\u4eac\u897f\u8def
p1117
g1117
sS'Bibo Road'
p1118
V\u78a7\u6ce2\u8def
p1119
sV\u5317\u4eac\u4e1c\u8def
p1120
g1120
sV\u6c5f\u6d66\u8def
p1121
g1121
sV\u6d2a\u6c5f\u8defn(\u95e8\u897f)\u57ce\u5c71\u8def\u897f515&\u8dc3\u9f99\u5357\u8def\u4e1c305
p1122
V\u6d2a\u6c5f\u8def
p1123
sV\u67ab\u6d0b\u8def
p1124
g1124
sV\u82b1\u83c7\u5c71\u8def
p1125
g1125
sV\u6ee8\u6c5f\u516c\u56ed\u6a2a\u8defs\u957f\u6c5f\u5357\u8def\u897f60&\u6ee8\u6c5f\u516c\u56ed\u7eb5\u8def\u4e1c100
p1126
V\u6ee8\u6c5f\u516c\u56ed\u6a2a\u8def
p1127
sV\u67cf\u5e90\u5357\u8def999\u53f7\uff08Bailunan Rd.\uff09
p1128
V\u67cf\u5e90\u5357\u8def
p1129
sV\u5b9a\u8fb9\u8def
p1130
g1130
sV\u65b0\u660c\u8def
p1131
g1131
sV\u6f15\u4e1c\u652f\u8def
p1132
g1132
sV\u7956\u51b2\u4e4b\u8def
p1133
g1133
sS'hehuaxing'
p1134
V\u8377\u82b1\u5f62
p1135
sV\u4e91\u68a8\u8def
p1136
g1136
sS'Donghanyang Road'
p1137
VDonghanyang \u8def
p1138
sV\u53cb\u60c5\u8def
p1139
g1139
sV\u4eba\u6c11\u4e2d\u8defn(\u95e8\u4e1c)\u5357\u5927\u8857\u897f105&\u73af\u57ce\u897f\u8def\u4e1c235
p1140
V\u4eba\u6c11\u4e2d\u8def
p1141
sV\u73af\u57ce\u897f\u8defw\u73af\u57ce\u5357\u8def\u5317130&\u4eba\u6c11\u4e2d\u8def\u5357290
p1142
V\u73af\u57ce\u897f\u8def
p1143
sV\u9f99\u9633\u8def
p1144
g1144
sS'Lane 1555 Jinshajiang road(west)'
p1145
V\u91d1\u6c99\u897f\u8def
p1146
sV\u4eba\u6c11\u4e2d\u8defs(\u95e8\u4e1c)\u661f\u57ce\u8def\u897f145&\u56ed\u6797\u8def\u4e1c125
p1147
V\u4eba\u6c11\u4e2d\u8def
p1148
sV\u6c5f\u897f\u4e2d\u8def
p1149
g1149
sV\u7fe0\u67cf\u8def
p1150
g1150
sV\u653f\u7acb\u8def
p1151
g1151
sV\u4e16\u4f26\u8defe(\u95e8\u5357)\u4e16\u7eaa\u5927\u9053\u8def\u5317210&\u4e16\u7eaa\u65b0\u57ce\u5317\u4fa7\u8def\u5357195
p1152
V\u4e16\u4f26\u8def
p1153
sV\u6fe0\u5357\u8defs(\u95e8\u4e1c)\u7ff0\u6797\u8def\u897f80&\u6fe0\u4e1c\u8def\u4e1c110
p1154
V\u6fe0\u5357\u8def
p1155
sV\u9752\u6d66\u533a\u76c8\u6e2f\u8def688\u5f0472\u53f7
p1156
V\u9752\u6d66\u533a\u76c8\u6e2f\u8def
p1157
sV\u91d1\u7766\u8def
p1158
g1158
sV\u4e30\u548c\u8def
p1159
g1159
sV\u7ea2\u661f\u8defn(\u95e8\u897f)\u5de5\u519c\u5357\u8def\u897f660&\u57ce\u5c71\u8def\u4e1c105
p1160
V\u7ea2\u661f\u8def
p1161
sV\u83b2\u82b1\u8def
p1162
g1162
sV\u4ed3\u8f69\u8def
p1163
g1163
sV\u57ce\u5317\u8def
p1164
g1164
sV\u57ce\u5c71\u8defw(\u95e8\u5357)\u5d07\u6559\u8def\u531790&\u4e16\u7eaa\u5927\u9053\u5357185
p1165
V\u57ce\u5c71\u8def
p1166
sV\u8679\u6865\u8defs(\u95e8\u897f)\u8dc3\u9f99\u5357\u8def\u897f85&\u5b9d\u7075\u8def\u4e1c470
p1167
V\u8679\u6865\u8def
p1168
sV\u60e0\u6c11\u8defw(\u95e8\u5317)\u957f\u6cf0\u8def\u5317310\u96c6\u9526\u8def\u535765
p1169
V\u60e0\u6c11\u8def
p1170
sV\u8239\u95f8\u897f\u8defn(\u5165\u53e3\u4e1c)\u5916\u73af\u897f\u8def\u897f290&\u957f\u6c5f\u4e2d\u8def\u4e1c1025
p1171
V\u8239\u95f8\u897f\u8def
p1172
sV\u5e02\u5fc3\u8def
p1173
g1173
sV\u4eba\u6c11\u4e1c\u8def42\u53f7s(\u95e8\u897f)\u5e73\u5b89\u8def\u897f350&\u6c99\u6c60\u5df7\u4e1c35
p1174
V\u4eba\u6c11\u4e1c\u8def
p1175
sV\u63a7\u4ef6\u8def
p1176
g1176
sV\u6cf0\u5174\u8def
p1177
g1177
sV\u7965\u5b89\u8def
p1178
g1178
sV\u9ec4\u6d77\u8defs(\u95e8\u4e1c)\u6c5f\u6d77\u5927\u9053\u897f155&\u6c38\u8fdb\u8def\u4e1c230
p1179
V\u9ec4\u6d77\u8def
p1180
sV\u987e\u5317\u8def
p1181
g1181
sV\u5de5\u519c\u8def450\u53f7w(\u95e8\u5317)\u6fe0\u5317\u8def\u5317320&\u949f\u79c0\u4e2d\u8def\u5357400
p1182
V\u5de5\u519c\u8def
p1183
sV\u6587\u4e00\u8def
p1184
g1184
sV\u5f20\u6768\u8def
p1185
g1185
sV\u5357\u5927\u9053
p1186
g1186
sV\u7eac\u4e00\u8defn(\u95e8\u4e1c)G204\u897f125&\u9648\u6865\u8def\u4e1c285
p1187
V\u7eac\u4e00\u8def
p1188
sV\u949f\u79c0\u897f\u8defs(\u95e8\u4e1c)\u5b69\u513f\u5df7\u5317\u8def\u897f500&\u5916\u73af\u897f\u8def\u4e1c650
p1189
V\u949f\u79c0\u897f\u8def
p1190
sV\u5ef6\u5b89\u4e1c\u8def
p1191
g1191
sV\u7ecd\u5174\u8def
p1192
g1192
sV\u73af\u57ce\u4e1c\u8def\u4e1c\u5317\u89d2e(\u95e8\u5317)\u5efa\u8bbe\u8def\u5317395&\u5317\u6fe0\u6865\u8def\u4e1c235
p1193
V\u73af\u57ce\u4e1c\u8def\u4e1c\u5317\u89d2
p1194
sV\u88d5\u5fb7\u8def
p1195
g1195
sV\u6587\u5cf0\u8defn(\u95e8\u897f)\u6587\u5cf0\u652f\u8def\u897f280&\u6fe0\u4e1c\u8def\u4e1c170
p1196
V\u6587\u5cf0\u8def
p1197
sV\u6fe0\u897f\u8def299\u53f7e(\u5e7f\u573a\u5357)\u4f73\u56ed\u8def(\u6a2a)\u5317225&\u6c5f\u6d77\u5927\u9053\u5357335
p1198
V\u6fe0\u897f\u8def
p1199
sV\u5927\u6e21\u6cb3\u8def
p1200
g1200
sS'Jindu Rd,'
p1201
V\u91d1\u90fd\u8def
p1202
sS'Tomson Golf Garden'
p1203
V\u6c64\u81e3\u9ad8\u5c14\u592b\u82b1\u56ed
p1204
sV\u66f2\u9633\u8def630\u5f04
p1205
V\u66f2\u9633\u8def
p1206
sV\u5b81\u57ce\u8def
p1207
g1207
sV\u8363\u5df7\u8857
p1208
g1208
sV\u897f\u6797\u5317\u8def
p1209
g1209
sS'XingHai Street'
p1210
V\u661f\u6d77\u8857
p1211
sV\u71d5\u57ce\u5927\u9053
p1212
g1212
sV\u5de5\u519c\u8defe(\u95e8\u5317)\u6559\u80b2\u8def\u5317380&\u5b66\u7530\u5357\u8def-\u6587\u5cf0\u652f\u8def\u535725
p1213
V\u5de5\u519c\u8def
p1214
sV\u9752\u5e74\u897f\u8defn(\u95e8\u897f)\u59da\u6e2f\u8def\u897f25&\u671d\u971e\u8def\u4e1c300
p1215
V\u9752\u5e74\u897f\u8def
p1216
sV\u66a8\u9633\u4e1c\u8def
p1217
g1217
sV\u4e1c\u9646\u8def
p1218
g1218
sV\u6c38\u6021\u8defs(\u95e8\u4e1c)\u53cb\u8c0a\u8def\u897f35&\u5317\u5927\u8857\u4e1c370
p1219
V\u6c38\u6021\u8def
p1220
sV\u6b66\u5937\u8def
p1221
g1221
sV\u6fe0\u897f\u8defe(\u95e8\u5317)\u4e07\u8c61\u65b0\u8def\u5317450&\u6fe0\u5317\u8def\u5357160
p1222
V\u6fe0\u897f\u8def
p1223
sV\u6c38\u5bff\u8def
p1224
g1224
sS'Qingyang Rd. (M)'
p1225
V\u5e86\u9633\u8def (M)
p1226
sV\u56fd\u5b9a\u8def
p1227
g1227
sV\u91d1\u5e73\u8def
p1228
g1228
sV\u6c38\u626c\u8defw(\u95e8\u5357)\u57ce\u6e2f\u8def\u5317230&\u4e2d\u73af\u8def\u5357150
p1229
V\u6c38\u626c\u8def
p1230
sV\u65b0\u5357\u8def
p1231
g1231
sV\u79c0\u6cbf\u8def1028\u5f042\u652f\u5f04
p1232
V\u79c0\u6cbf\u8def
p1233
sV\u6843\u82b1\u575e\u8def
p1234
g1234
sV\u661f\u660e\u8def\u4e1c\u4fa7
p1235
g1235
sV\u7530\u6797\u8def
p1236
g1236
sS'Wensan West Rode'
p1237
V\u6587\u4e09\u897f\u8def
p1238
sV\u6d77\u98ce\u8857w(\u4e1c\u4fa7)\u6c5f\u5ddd\u4e1c\u8def\u531760&\u5d07\u5ddd\u8def\u535735
p1239
V\u6d77\u98ce\u8857
p1240
sV\u4e0a\u6d77\u5e02\u957f\u5b81\u533a\u4e2d\u5c71\u897f\u8def1277\u53f7
p1241
V\u4e0a\u6d77\u5e02\u957f\u5b81\u533a\u4e2d\u5c71\u897f\u8def
p1242
sS'West Ronghua Street'
p1243
V\u8363\u534e\u8857\u897f
p1244
sV\u7389\u7687\u5c71\u8def
p1245
g1245
sV\u6fe0\u5317\u8defs(\u95e8\u4e1c)\u6fe0\u897f\u8def\u897f265&\u6fe0\u897f\u56ed\u897f\u4fa7\u8def\u4e1c70
p1246
V\u6fe0\u5317\u8def
p1247
sV\u957f\u5174\u4e2d\u8def
p1248
g1248
sV\u6fe0\u897f\u8defw(\u95e8\u524d)\u6fe0\u5317\u8def\u5317205&\u949f\u79c0\u4e2d-\u897f\u8def\u5357410
p1249
V\u6fe0\u897f\u8def
p1250
sV\u4e2d\u5c71\u8def223\u53f7
p1251
V\u4e2d\u5c71\u8def
p1252
sV\u5357\u90ca\u8defs(\u95e8\u897f)\u6c38\u7ea2\u8def\u897f445&\u5de5\u519c\u5357\u8def\u4e1c160
p1253
V\u5357\u90ca\u8def
p1254
sV\u6768\u9ad8\u5357\u8def
p1255
g1255
sV\u6d77\u971e\u8defw(\u95e8\u5317)\u5d07\u5ddd\u8def\u5317285&\u4e16\u7eaa\u5927\u9053\u5357260
p1256
V\u6d77\u971e\u8def
p1257
sV\u79c0\u6cbf\u8def
p1258
g1258
sV\u5de5\u519c\u8defe(\u95e8\u5357)\u5357\u5ddd\u56ed\u8def\u5317190&\u9752\u5e74\u4e2d\u8def\u5357240
p1259
V\u5de5\u519c\u8def
p1260
sV\u91d1\u6e21\u8def
p1261
g1261
sV\u666e\u6d31\u8def
p1262
g1262
sV\u6842\u6797\u8def
p1263
g1263
sV\u4e2d\u5c71\u4e8c\u8def
p1264
g1264
sV\u6b63\u9633\u8def
p1265
g1265
sV\u79d1\u6da6\u8defw(\u95e8\u5317)\u65b0\u5b81\u8def\u5317&\u57ce\u5317\u5927\u9053\u5357
p1266
V\u79d1\u6da6\u8def
p1267
sS'Anzhi Street'
p1268
V\u5b89\u75d4\u8857
p1269
sV\u897f\u65b0\u6865\u8def
p1270
g1270
sV\u4e94\u4e00\u8defw\u901a\u542f\u8def\u5317125&\u5357\u5ddd\u56ed\u8def\u5357635
p1271
V\u4e94\u4e00\u8def
p1272
sV\u4e0a\u6d77\u5e02\u5f90\u6c47\u533a\u6dee\u6d77\u897f\u8def55\u53f7
p1273
V\u4e0a\u6d77\u5e02\u5f90\u6c47\u533a\u6dee\u6d77\u897f\u8def
p1274
sV\u5357\u590d\u8def 
p1275
V\u5357\u590d\u8def
p1276
sS'CaoXi Bei lu 99'
p1277
V\u6f15\u6eaa\u5317\u8def 99
p1278
sV\u5e73\u5b89\u8defw(\u5165\u53e3\u5357)\u5357\u56ed\u8def\u531770&\u4e1c\u5927\u8857\u5357470
p1279
V\u5e73\u5b89\u8def
p1280
sV\u5e73\u9633\u8def
p1281
g1281
sV\u5b89\u5b81\u8def88\u5f04
p1282
V\u5b89\u5b81\u8def
p1283
sV\u6da6\u5174\u8def
p1284
g1284
sV\u653f\u548c\u8def
p1285
g1285
sV\u5c71\u6c34\u8defs\u5de5\u519c\u5357\u8def\u897f105&\u5251\u5c71\u8def\u4e1c345
p1286
V\u5c71\u6c34\u8def
p1287
sV\u9f99\u5c71\u8def
p1288
g1288
sS'BaiZhang East Road'
p1289
V\u767e\u4e08\u4e1c\u8def
p1290
sV\u4e50\u8363\u4e1c\u8def
p1291
g1291
sV\u80f6\u5dde\u8def 319 \u5f04
p1292
V\u80f6\u5dde\u8def
p1293
sV\u98df\u54c1\u8defn\u5b69\u513f\u5df7\u5317\u8def\u897f410&\u53cc\u62e5\u8def\u4e1c65
p1294
V\u98df\u54c1\u8def
p1295
sV\u6fe0\u5317\u8defn(\u95e8\u897f)\u6a2a\u6cb3\u8def\u897f80&\u6fe0\u897f\u8def\u4e1c135
p1296
V\u6fe0\u5317\u8def
p1297
sV\u79cb\u67cf\u8def
p1298
g1298
sV\u83ab\u5e72\u5c71\u8def
p1299
g1299
sV\u7d2b\u7405\u8defw(\u95e8\u5357)\u56db\u53f7\u56ed\u5357\u4fa7\u8def\u5317360&\u82b1\u56ed\u8def\u5357280
p1300
V\u7d2b\u7405\u8def
p1301
sS'Chengnan Rd.'
p1302
V\u57ce\u5357\u8def
p1303
sV\u6c38\u6021\u8defn(\u4e1c\u5165\u53e3\u897f)\u6c5f\u901a\u8def\u897f320&\u5de5\u519c\u5317\u8def\u4e1c230
p1304
V\u6c38\u6021\u8def
p1305
sV\u5ddd\u5468\u516c\u8def
p1306
g1306
sV\u6d2a\u6c5f\u8defs(\u95e8\u4e1c)\u57ce\u5c71\u8def\u897f260&\u8dc3\u9f99\u5357\u8def\u4e1c570
p1307
V\u6d2a\u6c5f\u8def
p1308
sS'Pudong Avenue'
p1309
V\u6d66\u4e1c\u5927\u9053
p1310
sS'yindu road'
p1311
V\u94f6\u90fd\u8def
p1312
sV\u5317\u6fe0\u6865\u8defw(\u95e8\u5357)\u5efa\u8bbe\u8def\u5317140&\u73af\u57ce\u5317\u8def\u5357195
p1313
V\u5317\u6fe0\u6865\u8def
p1314
sV\u534e\u4f57\u8def
p1315
g1315
sV\u632f\u534e\u8def
p1316
g1316
sV\u4e91\u5b89\u8defw(\u95e8\u4e1c)\u949f\u79c0\u897f\u8def\u531715&\u4e91\u5b89\u652f\u8def\u5357175
p1317
V\u4e91\u5b89\u8def
p1318
sV\u5065\u5eb7\u6a2a\u8defn(\u9644\u9662\u4e1c\u95e8)\u5357\u5927\u8857\u897f60&\u5065\u5eb7\u7eb5\u8def\u4e1c100
p1319
V\u5065\u5eb7\u6a2a\u8def
p1320
sS'East Zhaohua Road'
p1321
V\u662d\u5316\u4e1c\u8def
p1322
sV\u84b2\u897f\u8def Puxi Road
p1323
V\u84b2\u897f\u8def
p1324
sS'Jinbang Road'
p1325
V\u91d1\u699c\u8def
p1326
sV\u6587\u7fd4\u8def
p1327
g1327
sS'Huaihai Middle Road'
p1328
V\u6dee\u6d77\u4e2d\u8def
p1329
sV\u6843\u575e\u8defn(\u95e8\u4e1c)\u8dc3\u9f99\u8def\u897f315&\u8398\u56ed\u8def\u4e1c80
p1330
V\u6843\u575e\u8def
p1331
sV\u6caa\u5b9c\u516c\u8def
p1332
g1332
sV\u9e64\u5e86\u8def358\u5f04
p1333
V\u9e64\u5e86\u8def
p1334
sV\u6fe0\u4e1c\u8def16\u53f7w(\u5165\u53e3\u5357)\u6fe0\u5357\u8def\u5317110&\u5357\u56ed\u8def\u535715
p1335
V\u6fe0\u4e1c\u8def
p1336
sV\u53f6\u65b0\u516c\u8def
p1337
g1337
sV\u957f\u6c5f\u8def
p1338
g1338
sV\u79d1\u7075\u8def
p1339
g1339
sV\u5de5\u519c\u8defe(\u95e8\u5317)\u7ea2\u661f\u8def\u5317260&\u6c5f\u7eac\u8def\u535715
p1340
V\u5de5\u519c\u8def
p1341
sV\u5929\u5a01\u8def
p1342
g1342
sV\u4e2d\u5c71\u4e1c\u4e00\u8def
p1343
g1343
sV\u56fd\u5e86\u4e1c\u8def
p1344
g1344
sV\u957f\u5b89\u5357\u8def
p1345
g1345
sV\u897f\u6797\u5357\u8def
p1346
g1346
sV\u6c5f\u901a\u8defe(\u95e8\u5317)\u6c5f\u6d77\u5927\u9053\u5317380&\u6c38\u6021\u8def\u5357110
p1347
V\u6c5f\u901a\u8def
p1348
sS'Fuyun Road'
p1349
V\u5bcc\u8574\u8def
p1350
sV\u9547\u4e1c\u8def
p1351
g1351
sV\u9752\u5e74\u4e1c\u8defn(\u95e8\u4e1c)\u901a\u4eac\u5927\u9053\u897f570&\u4e94\u4e00\u8def\u4e1c365
p1352
V\u9752\u5e74\u4e1c\u8def
p1353
sV\u4e50\u8363\u897f\u8def
p1354
g1354
sV\u4e2d\u5c71\u5317\u8def3736\u53f7
p1355
V\u4e2d\u5c71\u5317\u8def
p1356
sS'Haizhou Road'
p1357
V\u6d77\u6d32\u8def
p1358
sV\u4ed9\u5883\u8def
p1359
g1359
sV\u9ec4\u9642\u5357\u8def
p1360
g1360
sV\u5929\u76ee\u4e2d\u8def
p1361
g1361
sV\u9e64\u6d9b\u8defn\u798f\u8fbe\u8def\u897f55&\u798f\u8fdc\u8def\u4e1c220
p1362
V\u9e64\u6d9b\u8def
p1363
sV\u5de5\u519c\u5317\u8defw(\u95e8\u5317)\u949f\u79c0\u4e2d\u8def\u5317290&\u6c5f\u6d77\u5927\u9053\u5357925
p1364
V\u5de5\u519c\u5317\u8def
p1365
sV\u7eac\u516b\u8def
p1366
g1366
sV\u5510\u9f99\u8def 11 \u5f04
p1367
V\u5510\u9f99\u8def
p1368
sV\u897f\u6c5f\u6e7e\u8def
p1369
g1369
sV\u6b66\u80dc\u8def
p1370
g1370
sV\u5916\u73af\u897f\u8defw(\u95e8\u5357)\u4eba\u6c11\u897f\u8def\u5317345&\u949f\u79c0\u897f\u8def\u5357290
p1371
V\u5916\u73af\u897f\u8def
p1372
sS'Yichang Road'
p1373
V\u5b9c\u660c\u8def
p1374
sV\u8001\u66d9\u5149\u8def Laoshuguang Road
p1375
V\u8001\u66d9\u5149\u8def
p1376
sV\u57ce\u5c71\u8defw(\u5165\u53e3\u5317)\u5357\u90ca\u8def\u5317280&\u4e09\u9c9c\u8857\u535780
p1377
V\u57ce\u5c71\u8def
p1378
sV\u8054\u822a\u8def
p1379
g1379
sV\u8dc3\u9f99\u5357\u8defw(\u897f\u4fa7)\u7ea2\u661f\u8def\u5317150&\u6c5f\u7eac\u8def\u5357190
p1380
V\u8dc3\u9f99\u5357\u8def
p1381
sV\u5bc6\u4e91\u8def454\u5f04 Lane 454 of Miyun Road
p1382
V\u5bc6\u4e91\u8def
p1383
sS'East Hongsong Road'
p1384
V\u7ea2\u677e\u4e1c\u8def
p1385
sV\u4ed9\u971e\u897f\u8def (Xianxia West Rd)
p1386
V\u4ed9\u971e\u897f\u8def
p1387
sV\u6613\u5bb6\u6865\u65b0\u6751\u5185
p1388
g1388
sV\u4eba\u6c11\u897f\u8defs(\u95e8\u897f)\u5b69\u513f\u5df7\u5357\u8def-\u5317\u8def\u897f225&\u53cc\u62e5\u8def\u4e1c110
p1389
V\u4eba\u6c11\u897f\u8def
p1390
sV\u78a7\u4e91\u8def
p1391
g1391
sV\u6c38\u76db\u8defn(\u95e8\u897f)\u57ce\u95f8\u8def\u897f200&\u6df1\u5357\u8def\u4e1c140
p1392
V\u6c38\u76db\u8def
p1393
sV\u9759\u6d77\u5546\u8d38\u8857s\u5de5\u519c\u5357\u8def\u897f405&\u57ce\u5c71\u8def\u4e1c390
p1394
V\u9759\u6d77\u5546\u8d38\u8857
p1395
sV\u65b0\u534e\u8defn(\u95e8\u4e1c)\u57ce\u95f8\u8def-\u5357\u5e02\u8857\u897f500&\u5174\u9686\u8857\u4e1c130
p1396
V\u65b0\u534e\u8def
p1397
sV\u5f20\u6768\u5317\u8def
p1398
g1398
sV\u9e64\u6d9b\u8def(\u6a2a)n(\u95e8\u897f)\u901a\u5218\u7ebf\u897f270&\u9e64\u6d9b\u8def(\u7eb5)\u4e1c185
p1399
V\u9e64\u6d9b\u8def
p1400
sV\u897f\u6e56\u82d1\u8def
p1401
g1401
sV\u6cb9\u8f66\u8def
p1402
g1402
sV\u80dc\u5229\u8defe(\u95e8\u5317)\u4eba\u6c11\u4e1c\u8def\u5317595&\u65b0\u80dc\u8def\u5357160
p1403
V\u80dc\u5229\u8def
p1404
sV\u6768\u9ad8\u5317\u8def
p1405
g1405
sV\u5b66\u5219\u8def
p1406
g1406
sV\u8679\u6865\u8defn(\u95e8\u4e1c)\u5de5\u519c\u8def\u897f705&\u57ce\u5c71\u8def\u4e1c130
p1407
V\u8679\u6865\u8def
p1408
sS'Changhua Rd.'
p1409
V\u5f70\u5316\u8def
p1410
sV\u5317\u6fe0\u6865\u8defw(\u4e1c\u4fa7)\u4eba\u6c11\u4e2d\u8def\u5317170&\u5efa\u8bbe\u8def\u535755
p1411
V\u5317\u6fe0\u6865\u8def
p1412
sV\u4f59\u676d\u5858\u8def
p1413
g1413
sV\u6fe0\u5317\u8defn(\u95e8\u4e1c)\u6fe0\u4e1c\u8def\u897f405&\u5317\u6fe0\u6865\u8def\u4e1c175
p1414
V\u6fe0\u5317\u8def
p1415
sV\u6587\u660c\u4e2d\u8def
p1416
g1416
sV\u5357\u4eac\u8def\u6b65\u884c\u8857
p1417
g1417
sV\u4eba\u6c11\u897f\u8defs(\u95e8\u4e1c)\u53cc\u62e5\u8def\u897f255&\u5916\u73af\u897f\u8def\u4e1c660
p1418
V\u4eba\u6c11\u897f\u8def
p1419
sV\u5d07\u5ddd\u8defn(\u95e8\u4e1c)\u5d07\u5b66\u8def\u897f145&\u57ce\u5c71\u8def\u4e1c180
p1420
V\u5d07\u5ddd\u8def
p1421
sV\u5317\u6731\u5bb6\u56ed\u8defn(\u95e8\u5357)\u8dc3\u9f99\u8def\u897f335&\u94c1\u661f\u652f\u8def\u4e1c10
p1422
V\u5317\u6731\u5bb6\u56ed\u8def
p1423
sV\u8fb0\u5854\u8def
p1424
g1424
sV\u8679\u6865\u8defs(\u95e8\u4e1c)\u60e0\u8679\u8def\u897f460&\u5916\u73af\u897f\u8def\u4e1c70
p1425
V\u8679\u6865\u8def
p1426
sS'Wuzhong Road'
p1427
V\u5434\u4e2d\u8def
p1428
sV\u6e05\u541f\u8857
p1429
g1429
sV\u6559\u80b2\u8defn(\u95e8\u4e1c)\u901a\u7532\u8def\u897f200&\u901a\u4eac\u5927\u9053\u4e1c255(\u5317\u95e8\u5bf9\u9762)
p1430
V\u6559\u80b2\u8def
p1431
sV\u677e\u6c47\u4e2d\u8def
p1432
g1432
sV\u897f\u6597\u95e8\u8def
p1433
g1433
sV\u79c0\u6cbf\u8def (Xiuyan Road)
p1434
V\u79c0\u6cbf\u8def
p1435
sV\u4ed9\u971e\u897f\u8def
p1436
g1436
sV\u957f\u6d77\u8def
p1437
g1437
sV\u9655\u897f\u5317\u8def
p1438
g1438
sV\u7965\u548c\u82b1\u82d1
p1439
g1439
sS'Alley 3668, Xiuyan Road'
p1440
V\u5c0f\u5df7 3668\uff0c\u5cab\u5ca9\u8def
p1441
sS'Zhongma Road'
p1442
V\u4e2d\u9a6c\u8def
p1443
sV\u4ed3\u4e30\u8def
p1444
g1444
sV\u7ea2\u661f\u8def5#n(\u95e8\u897f)\u57ce\u5c71\u8def\u897f495&\u8dc3\u9f99\u5357\u8def\u4e1c345
p1445
V\u7ea2\u661f\u8def
p1446
sV\u5e73\u5174\u7ebf\u5e84\u5174\u8def\u6bb5
p1447
g1447
sV\u6768\u6811\u6d66\u8def
p1448
g1448
sV\u82e5\u6c34\u8def
p1449
g1449
sV\u4e0a\u5858\u8def
p1450
g1450
sS'Xiuyan Road'
p1451
V\u5cab\u5ca9\u8def
p1452
sV\u6d66\u6c5f\u9547
p1453
g1453
sV\u7d2b\u8346\u82b1\u8def
p1454
g1454
sV\u5929\u5c71\u897f\u8def
p1455
g1455
sV\u6d77\u971e\u8defe(\u95e8\u5317)\u6c5f\u817e\u8def\u5317300&\u4e16\u7eaa\u5927\u9053\u535780
p1456
V\u6d77\u971e\u8def
p1457
sV\u5357\u4e09\u73af\u8def
p1458
g1458
sV\u57ce\u6e2f\u8def58\u53f7n(\u95e8\u4e1c)\u6c38\u626c\u8def\u897f210&\u5174\u6cf0\u8def-\u6c38\u548c\u8def\u4e1c255
p1459
V\u57ce\u6e2f\u8def
p1460
sV\u674e\u51b0\u8def
p1461
g1461
sV\u4e1c\u4e66\u623f\u8def
p1462
g1462
sV\u7ade\u821f\u5317\u8def
p1463
g1463
sV\u6cbf\u6cb3\u8defn(\u95e8\u897f)\u57ce\u5c71\u8def\u897f725&\u8dc3\u9f99\u5357\u8def\u4e1c95
p1464
V\u6cbf\u6cb3\u8def
p1465
sS'Pudong Road (S)'
p1466
V\u6d66\u4e1c\u8def (S)
p1467
sV\u6587\u4e09\u8def259\u53f7
p1468
V\u6587\u4e09\u8def
p1469
sV\u67f3\u8425\u8def
p1470
g1470
sV\u91d1\u9675\u5317\u8def
p1471
g1471
sV\u5c0f\u6728\u6865\u8def
p1472
g1472
sV\u6ea7\u6c34\u533a\u6c38\u9633\u9547\u91d1\u86d9\u8def\u91d1\u86d9\u8def
p1473
g1473
sS'Moyu South Road'
p1474
V\u58a8\u7389\u5357\u8def
p1475
sV\u91cd\u5e86\u5317\u8def
p1476
g1476
sS'Dongsheng Road'
p1477
V\u4e1c\u5347\u8def
p1478
sV\u897f\u85cf\u5317\u8def
p1479
g1479
sS'Ding Xiang Road'
p1480
V\u4e01\u4e61\u8def
p1481
sV\u5de5\u519c\u5357\u8def\u897f150\u53f7w(\u95e8\u5317)\u6cbf\u6cb3\u8def\u5317135&\u6d2a\u6c5f\u8def\u5357265
p1482
V\u5de5\u519c\u5357\u8def\u897f
p1483
sV\u5e7f\u5bcc\u6797\u8def
p1484
g1484
sV\u957f\u6c5f\u5317\u8def\u8f85\u8def\u5bbf\u820d\u95e8\u53e3
p1485
g1485
sV\u7ea2\u677e\u8def 81 \u5f04
p1486
V\u7ea2\u677e\u8def
p1487
sV\u5357\u9752\u8def
p1488
g1488
sV\u7559\u548c\u8def
p1489
g1489
sV\u5357\u957f\u8857
p1490
g1490
sV\u6821\u897f\u8defw(\u4e1c\u4fa7)\u65b0\u548c\u8def\u5317260&\u4eba\u6c11\u4e2d\u8def\u535780
p1491
V\u6821\u897f\u8def
p1492
sV\u5468\u5eb7\u8def
p1493
g1493
sV\u4e1c\u65b9\u8def
p1494
g1494
sV\u82b1\u56ed\u8defn(\u95e8\u897f)\u56ed\u6797\u8def\u897f250&\u6c38\u7ea2\u8def\u4e1c215
p1495
V\u82b1\u56ed\u8def
p1496
sV\u4eba\u6c11\u4e2d\u8defs(\u95e8\u4e1c)\u901a\u4eac\u5927\u9053\u897f30&\u4e1c\u666f\u8def\u4e1c265
p1497
V\u4eba\u6c11\u4e2d\u8def
p1498
sV\u71d5\u5c71\u8def
p1499
g1499
sS'Nandang Dong Lu'
p1500
V\u96be\u5f53\u4e1c\u8def
p1501
sV\u57ce\u5c71\u8defw(\u95e8\u5357)\u517b\u8001\u9662\u8def\u531790&\u6587\u5cf0\u8def-\u542f\u79c0\u8def\u5357190
p1502
V\u57ce\u5c71\u8def
p1503
sV\u6c38\u6021\u8defs(\u95e8\u897f)\u5de5\u519c\u5317\u8def\u897f215&\u77f3\u6865\u8def\u4e1c475
p1504
V\u6c38\u6021\u8def
p1505
sV\u5b69\u513f\u5df7\u5357\u8defe(\u6865\u5317)\u5317\u6731\u5bb6\u56ed\u8def\u531745&\u82b1\u6728\u8def\u5357195
p1506
V\u5b69\u513f\u5df7\u5357\u8def
p1507
sV\u5de8\u8702\u8def
p1508
g1508
sV\u4ed9\u6797\u5927\u9053
p1509
g1509
sV\u8c37\u9633\u5317\u8def
p1510
g1510
sV\u6cbf\u6cb3\u8defn(\u95e8\u897f)\u6d77\u7aef\u8def\u897f265&\u57ce\u5c71\u8def\u4e1c245
p1511
V\u6cbf\u6cb3\u8def
p1512
sV\u4eba\u6c11\u897f\u8defn(\u95e8\u897f)\u5916\u73af\u897f\u8def\u897f705&\u957f\u6c5f\u4e2d\u8def\u4e1c370
p1513
V\u4eba\u6c11\u897f\u8def
p1514
sV\u6885\u5bb6\u6d5c\u8def
p1515
g1515
sS'Fengxian Lu'
p1516
V\u5949\u8d24\u8def
p1517
sV\u9752\u5e74\u4e2d\u8defn(\u95e8\u4e1c)\u4e94\u4e00\u8def\u897f350&\u5de5\u519c\u8def\u4e1c330
p1518
V\u9752\u5e74\u4e2d\u8def
p1519
sV\u5929\u5b9d\u8def
p1520
g1520
sV\u4e1c\u6a2a\u5858
p1521
g1521
sV\u9f99\u738b\u6865\u8defn(\u95e8\u897f)\u4e94\u4e00\u8def\u897f125&\u5de5\u519c\u8def\u4e1c945
p1522
V\u9f99\u738b\u6865\u8def
p1523
sV\u73af\u57ce\u897f\u8def\u5317\u6bb5
p1524
g1524
sV\u73af\u57ce\u5357\u8defs(\u95e8\u4e1c)\u5357\u5927\u8857\u897f190&\u73af\u57ce\u897f\u8def\u4e1c135
p1525
V\u73af\u57ce\u5357\u8def
p1526
sV\u6cd7\u6768\u8def
p1527
g1527
sV\u56ed\u4e8c\u8def
p1528
g1528
sV\u989b\u5174\u4e1c\u8def
p1529
g1529
sV\u4e0a\u5408\u8def
p1530
g1530
sV\u6c38\u6021\u8defn(\u95e8\u897f)\u77f3\u6865\u8def\u897f210&\u53cb\u8c0a\u8def\u4e1c420
p1531
V\u6c38\u6021\u8def
p1532
sV\u9ec4\u6866\u8def
p1533
g1533
sV\u677e\u6c47\u897f\u8def
p1534
g1534
sV\u4eba\u6c11\u4e2d\u8defs\u65b0\u5e02\u8857\u897f75&\u65b0\u6865\u8def\u4e1c270
p1535
V\u4eba\u6c11\u4e2d\u8def
p1536
sV\u4e2d\u5c71\u5317\u4e00\u8def
p1537
g1537
sV\u4e1c\u5bfa\u8defs(\u95e8\u897f)\u533b\u5b66\u9662\u8def\u897f15&\u5357\u5927\u8857\u4e1c160
p1538
V\u4e1c\u5bfa\u8def
p1539
sV\u4eba\u6c11\u4e2d\u8defn(\u95e8\u4e1c)\u4e94\u4e00\u8def\u897f155&\u5fb7\u6c11\u8def\u4e1c215
p1540
V\u4eba\u6c11\u4e2d\u8def
p1541
sS'Qixin Road'
p1542
V\u4e03\u8398\u8def
p1543
sV\u7d2b\u8587\u8def
p1544
g1544
sS'Taojiang Road'
p1545
V\u6843\u6c5f\u8def
p1546
sV\u5b9c\u5c71\u8def
p1547
g1547
sV\u5b66\u7530\u8defn(\u95e8\u4e1c)\u5b66\u7530\u516c\u56ed\u8def\u897f30&\u5b66\u7d2b\u8def\u4e1c215
p1548
V\u5b66\u7530\u8def
p1549
sV\u4e16\u754c\u8def
p1550
g1550
sV\u5de5\u519c\u8defe(\u95e8\u5317)\u901a\u542f\u8def-\u8679\u6865\u8def\u5317135&\u5357\u5ddd\u56ed\u8def\u5357335
p1551
V\u5de5\u519c\u8def
p1552
sV\u5f00\u57ce\u8def
p1553
g1553
sV\u4f1a\u6587\u8def
p1554
g1554
sS'yongfu lu'
p1555
V\u6c38\u798f\u8def
p1556
sV\u897f\u6e56\u533a\u534e\u661f\u8def
p1557
g1557
sV\u6f15\u6eaa\u8def
p1558
g1558
sV\u4eba\u6c11\u5317\u8def
p1559
g1559
sS'Wuchang Ave.'
p1560
V\u6b66\u660c\u5927\u9053
p1561
sV\u6731\u5efa\u8def
p1562
g1562
sV\u5c71\u9634\u8def
p1563
g1563
sV\u6587\u6c47\u8def
p1564
g1564
sV\u83b2\u56ed\u8def
p1565
g1565
sV\u80f6\u9633\u8def
p1566
g1566
sV\u5d07\u5ddd\u8def\u535766\u53f7s(\u95e8\u897f)\u957f\u6c5f\u4e2d\u8def\u9ad8\u67b6\u897f130&\u957f\u6c5f\u5357\u8def\u4e1c85
p1567
V\u5d07\u5ddd\u8def\u5357
p1568
sV\u5bcc\u8fbe\u8def
p1569
g1569
sV\u4eba\u6c11\u897f\u8defn(\u95e8\u897f)\u5916\u73af\u897f\u8def\u897f315&\u957f\u6c5f\u4e2d\u8def\u4e1c775
p1570
V\u4eba\u6c11\u897f\u8def
p1571
sS'Suzhou Dadao Dong'
p1572
V\u82cf\u5dde\u5927\u9053\u4e1c
p1573
sV\u6587\u4e8c\u8def
p1574
g1574
sV\u6731\u6885\u8def
p1575
g1575
sV\u96c5\u6208\u5c14\u5927\u9053
p1576
g1576
sS'Xue Yuan Road'
p1577
V\u859b\u56ed\u8def
p1578
sV\u4eba\u6c11\u4e2d\u8defs(\u95e8\u897f)\u8dc3\u9f99\u8def-\u6fe0\u897f\u8def\u897f170&\u8d77\u51e4\u8857(\u4e1c)\u4e1c25
p1579
V\u4eba\u6c11\u4e2d\u8def
p1580
sV\u901a\u4eac\u5927\u9053e(\u56ed\u5185)\u949f\u79c0\u4e2d\u8def\u5317&\u6c5f\u6d77\u5927\u9053\u5357
p1581
V\u901a\u4eac\u5927\u9053
p1582
sV\u5609\u5510\u516c\u8def
p1583
g1583
sV\u66f9\u5b89\u516c\u8def
p1584
g1584
sS'fumin lu'
p1585
V\u5bcc\u6c11\u8def
p1586
sV\u949f\u79c0\u897f\u8defs(\u95e8\u897f)\u4e91\u5b89\u8def\u897f255&\u767e\u82b1\u8def\u4e1c175(\u5927\u5634\u9c7c\u4e61\u95e8\u524d)
p1587
V\u949f\u79c0\u897f\u8def
p1588
sV\u6c5f\u901a\u8defe(\u95e8\u5357)\u6c38\u6021\u8def\u5317280&\u6c38\u548c\u8def\u5357505
p1589
V\u6c5f\u901a\u8def
p1590
sV\u6587\u4e8c\u897f\u8def Wen'er Road West
p1591
V\u6587\u4e8c\u897f\u8def
p1592
sV\u516c\u56ed\u8def(\u6a2a)n(\u95e8\u4e1c)\u516c\u56ed\u8def(\u7ad6)\u897f70&\u6cb3\u4e1c\u8def\u4e1c230
p1593
V\u516c\u56ed\u8def
p1594
sV\u521b\u5f3a\u8def
p1595
g1595
sV\u8000\u4f53\u8def
p1596
g1596
s.